
rsp:     file format elf32-littlearm


Disassembly of section .text.vectors:

01000000 <_monitor_vecs-0x1000>:
 1000000:	ea0008fa 	b	10023f0 <_vec_reset>
 1000004:	ea0007fd 	b	1002000 <_vec_undef>
 1000008:	ea000820 	b	1002090 <_vec_swi>
 100000c:	ea000843 	b	1002120 <_vec_prefetch_abt>
 1000010:	ea000866 	b	10021b0 <_vec_dabort>
 1000014:	ea000889 	b	1002240 <_vec_reserved>
 1000018:	ea0008ac 	b	10022d0 <_vec_irq>
 100001c:	ea0008cf 	b	1002360 <_vec_fiq>
 1000020:	e320f000 	nop	{0}
 1000024:	e320f000 	nop	{0}
 1000028:	e320f000 	nop	{0}
 100002c:	e320f000 	nop	{0}
 1000030:	e320f000 	nop	{0}
 1000034:	e320f000 	nop	{0}
 1000038:	e320f000 	nop	{0}
 100003c:	e320f000 	nop	{0}
	...

01001000 <_monitor_vecs>:
 1001000:	ea000c30 	b	10040c8 <mon_panic>
 1001004:	ea000c2f 	b	10040c8 <mon_panic>
 1001008:	ea000a32 	b	10038d8 <_vec_smc_tz>
 100100c:	ea000c2d 	b	10040c8 <mon_panic>
 1001010:	ea000c2c 	b	10040c8 <mon_panic>
 1001014:	ea000c2b 	b	10040c8 <mon_panic>
 1001018:	ea000c2a 	b	10040c8 <mon_panic>
 100101c:	ea000a51 	b	1003968 <_vec_fiq_tz>
 1001020:	e320f000 	nop	{0}
 1001024:	e320f000 	nop	{0}
 1001028:	e320f000 	nop	{0}
 100102c:	e320f000 	nop	{0}
 1001030:	e320f000 	nop	{0}
 1001034:	e320f000 	nop	{0}
 1001038:	e320f000 	nop	{0}
 100103c:	e320f000 	nop	{0}
	...

Disassembly of section .text:

01002000 <_vec_undef>:
 1002000:	e24ee004 	sub	lr, lr, #4
 1002004:	f96d0513 	srsdb	sp!, #19
 1002008:	f1020013 	cps	#19
 100200c:	f10c00c0 	cpsid	if
 1002010:	e92d4000 	push	{lr}
 1002014:	e24dd044 	sub	sp, sp, #68	; 0x44
 1002018:	e88d1fff 	stm	sp, {r0, r1, r2, r3, r4, r5, r6, r7, r8, r9, sl, fp, ip}
 100201c:	e59d0048 	ldr	r0, [sp, #72]	; 0x48
 1002020:	e58d003c 	str	r0, [sp, #60]	; 0x3c
 1002024:	e59d004c 	ldr	r0, [sp, #76]	; 0x4c
 1002028:	e1a03000 	mov	r3, r0
 100202c:	e38000c0 	orr	r0, r0, #192	; 0xc0
 1002030:	e121f000 	msr	CPSR_c, r0
 1002034:	e1a0100d 	mov	r1, sp
 1002038:	e1a0200e 	mov	r2, lr
 100203c:	f1020013 	cps	#19
 1002040:	e58d1034 	str	r1, [sp, #52]	; 0x34
 1002044:	e58d2038 	str	r2, [sp, #56]	; 0x38
 1002048:	e58d3040 	str	r3, [sp, #64]	; 0x40
 100204c:	e1a0000d 	mov	r0, sp
 1002050:	eb00051c 	bl	10034c8 <do_undef>
 1002054:	e59d1034 	ldr	r1, [sp, #52]	; 0x34
 1002058:	e59d2038 	ldr	r2, [sp, #56]	; 0x38
 100205c:	e59d0040 	ldr	r0, [sp, #64]	; 0x40
 1002060:	e38000c0 	orr	r0, r0, #192	; 0xc0
 1002064:	e121f000 	msr	CPSR_c, r0
 1002068:	e1a0d001 	mov	sp, r1
 100206c:	e1a0e002 	mov	lr, r2
 1002070:	f1020013 	cps	#19
 1002074:	e59d003c 	ldr	r0, [sp, #60]	; 0x3c
 1002078:	e58d0048 	str	r0, [sp, #72]	; 0x48
 100207c:	e89d1fff 	ldm	sp, {r0, r1, r2, r3, r4, r5, r6, r7, r8, r9, sl, fp, ip}
 1002080:	e28dd044 	add	sp, sp, #68	; 0x44
 1002084:	e8bd4000 	pop	{lr}
 1002088:	f10800c0 	cpsie	if
 100208c:	f8bd0a00 	rfeia	sp!

01002090 <_vec_swi>:
 1002090:	e24ee004 	sub	lr, lr, #4
 1002094:	f96d0513 	srsdb	sp!, #19
 1002098:	f1020013 	cps	#19
 100209c:	f10c00c0 	cpsid	if
 10020a0:	e92d4000 	push	{lr}
 10020a4:	e24dd044 	sub	sp, sp, #68	; 0x44
 10020a8:	e88d1fff 	stm	sp, {r0, r1, r2, r3, r4, r5, r6, r7, r8, r9, sl, fp, ip}
 10020ac:	e59d0048 	ldr	r0, [sp, #72]	; 0x48
 10020b0:	e58d003c 	str	r0, [sp, #60]	; 0x3c
 10020b4:	e59d004c 	ldr	r0, [sp, #76]	; 0x4c
 10020b8:	e1a03000 	mov	r3, r0
 10020bc:	e38000c0 	orr	r0, r0, #192	; 0xc0
 10020c0:	e121f000 	msr	CPSR_c, r0
 10020c4:	e1a0100d 	mov	r1, sp
 10020c8:	e1a0200e 	mov	r2, lr
 10020cc:	f1020013 	cps	#19
 10020d0:	e58d1034 	str	r1, [sp, #52]	; 0x34
 10020d4:	e58d2038 	str	r2, [sp, #56]	; 0x38
 10020d8:	e58d3040 	str	r3, [sp, #64]	; 0x40
 10020dc:	e1a0000d 	mov	r0, sp
 10020e0:	eb000538 	bl	10035c8 <do_swi>
 10020e4:	e59d1034 	ldr	r1, [sp, #52]	; 0x34
 10020e8:	e59d2038 	ldr	r2, [sp, #56]	; 0x38
 10020ec:	e59d0040 	ldr	r0, [sp, #64]	; 0x40
 10020f0:	e38000c0 	orr	r0, r0, #192	; 0xc0
 10020f4:	e121f000 	msr	CPSR_c, r0
 10020f8:	e1a0d001 	mov	sp, r1
 10020fc:	e1a0e002 	mov	lr, r2
 1002100:	f1020013 	cps	#19
 1002104:	e59d003c 	ldr	r0, [sp, #60]	; 0x3c
 1002108:	e58d0048 	str	r0, [sp, #72]	; 0x48
 100210c:	e89d1fff 	ldm	sp, {r0, r1, r2, r3, r4, r5, r6, r7, r8, r9, sl, fp, ip}
 1002110:	e28dd044 	add	sp, sp, #68	; 0x44
 1002114:	e8bd4000 	pop	{lr}
 1002118:	f10800c0 	cpsie	if
 100211c:	f8bd0a00 	rfeia	sp!

01002120 <_vec_prefetch_abt>:
 1002120:	e24ee004 	sub	lr, lr, #4
 1002124:	f96d0513 	srsdb	sp!, #19
 1002128:	f1020013 	cps	#19
 100212c:	f10c00c0 	cpsid	if
 1002130:	e92d4000 	push	{lr}
 1002134:	e24dd044 	sub	sp, sp, #68	; 0x44
 1002138:	e88d1fff 	stm	sp, {r0, r1, r2, r3, r4, r5, r6, r7, r8, r9, sl, fp, ip}
 100213c:	e59d0048 	ldr	r0, [sp, #72]	; 0x48
 1002140:	e58d003c 	str	r0, [sp, #60]	; 0x3c
 1002144:	e59d004c 	ldr	r0, [sp, #76]	; 0x4c
 1002148:	e1a03000 	mov	r3, r0
 100214c:	e38000c0 	orr	r0, r0, #192	; 0xc0
 1002150:	e121f000 	msr	CPSR_c, r0
 1002154:	e1a0100d 	mov	r1, sp
 1002158:	e1a0200e 	mov	r2, lr
 100215c:	f1020013 	cps	#19
 1002160:	e58d1034 	str	r1, [sp, #52]	; 0x34
 1002164:	e58d2038 	str	r2, [sp, #56]	; 0x38
 1002168:	e58d3040 	str	r3, [sp, #64]	; 0x40
 100216c:	e1a0000d 	mov	r0, sp
 1002170:	eb000505 	bl	100358c <do_prefetch>
 1002174:	e59d1034 	ldr	r1, [sp, #52]	; 0x34
 1002178:	e59d2038 	ldr	r2, [sp, #56]	; 0x38
 100217c:	e59d0040 	ldr	r0, [sp, #64]	; 0x40
 1002180:	e38000c0 	orr	r0, r0, #192	; 0xc0
 1002184:	e121f000 	msr	CPSR_c, r0
 1002188:	e1a0d001 	mov	sp, r1
 100218c:	e1a0e002 	mov	lr, r2
 1002190:	f1020013 	cps	#19
 1002194:	e59d003c 	ldr	r0, [sp, #60]	; 0x3c
 1002198:	e58d0048 	str	r0, [sp, #72]	; 0x48
 100219c:	e89d1fff 	ldm	sp, {r0, r1, r2, r3, r4, r5, r6, r7, r8, r9, sl, fp, ip}
 10021a0:	e28dd044 	add	sp, sp, #68	; 0x44
 10021a4:	e8bd4000 	pop	{lr}
 10021a8:	f10800c0 	cpsie	if
 10021ac:	f8bd0a00 	rfeia	sp!

010021b0 <_vec_dabort>:
 10021b0:	e24ee008 	sub	lr, lr, #8
 10021b4:	f96d0513 	srsdb	sp!, #19
 10021b8:	f1020013 	cps	#19
 10021bc:	f10c00c0 	cpsid	if
 10021c0:	e92d4000 	push	{lr}
 10021c4:	e24dd044 	sub	sp, sp, #68	; 0x44
 10021c8:	e88d1fff 	stm	sp, {r0, r1, r2, r3, r4, r5, r6, r7, r8, r9, sl, fp, ip}
 10021cc:	e59d0048 	ldr	r0, [sp, #72]	; 0x48
 10021d0:	e58d003c 	str	r0, [sp, #60]	; 0x3c
 10021d4:	e59d004c 	ldr	r0, [sp, #76]	; 0x4c
 10021d8:	e1a03000 	mov	r3, r0
 10021dc:	e38000c0 	orr	r0, r0, #192	; 0xc0
 10021e0:	e121f000 	msr	CPSR_c, r0
 10021e4:	e1a0100d 	mov	r1, sp
 10021e8:	e1a0200e 	mov	r2, lr
 10021ec:	f1020013 	cps	#19
 10021f0:	e58d1034 	str	r1, [sp, #52]	; 0x34
 10021f4:	e58d2038 	str	r2, [sp, #56]	; 0x38
 10021f8:	e58d3040 	str	r3, [sp, #64]	; 0x40
 10021fc:	e1a0000d 	mov	r0, sp
 1002200:	eb0004e6 	bl	10035a0 <do_dabort>
 1002204:	e59d1034 	ldr	r1, [sp, #52]	; 0x34
 1002208:	e59d2038 	ldr	r2, [sp, #56]	; 0x38
 100220c:	e59d0040 	ldr	r0, [sp, #64]	; 0x40
 1002210:	e38000c0 	orr	r0, r0, #192	; 0xc0
 1002214:	e121f000 	msr	CPSR_c, r0
 1002218:	e1a0d001 	mov	sp, r1
 100221c:	e1a0e002 	mov	lr, r2
 1002220:	f1020013 	cps	#19
 1002224:	e59d003c 	ldr	r0, [sp, #60]	; 0x3c
 1002228:	e58d0048 	str	r0, [sp, #72]	; 0x48
 100222c:	e89d1fff 	ldm	sp, {r0, r1, r2, r3, r4, r5, r6, r7, r8, r9, sl, fp, ip}
 1002230:	e28dd044 	add	sp, sp, #68	; 0x44
 1002234:	e8bd4000 	pop	{lr}
 1002238:	f10800c0 	cpsie	if
 100223c:	f8bd0a00 	rfeia	sp!

01002240 <_vec_reserved>:
 1002240:	e24ee008 	sub	lr, lr, #8
 1002244:	f96d0513 	srsdb	sp!, #19
 1002248:	f1020013 	cps	#19
 100224c:	f10c00c0 	cpsid	if
 1002250:	e92d4000 	push	{lr}
 1002254:	e24dd044 	sub	sp, sp, #68	; 0x44
 1002258:	e88d1fff 	stm	sp, {r0, r1, r2, r3, r4, r5, r6, r7, r8, r9, sl, fp, ip}
 100225c:	e59d0048 	ldr	r0, [sp, #72]	; 0x48
 1002260:	e58d003c 	str	r0, [sp, #60]	; 0x3c
 1002264:	e59d004c 	ldr	r0, [sp, #76]	; 0x4c
 1002268:	e1a03000 	mov	r3, r0
 100226c:	e38000c0 	orr	r0, r0, #192	; 0xc0
 1002270:	e121f000 	msr	CPSR_c, r0
 1002274:	e1a0100d 	mov	r1, sp
 1002278:	e1a0200e 	mov	r2, lr
 100227c:	f1020013 	cps	#19
 1002280:	e58d1034 	str	r1, [sp, #52]	; 0x34
 1002284:	e58d2038 	str	r2, [sp, #56]	; 0x38
 1002288:	e58d3040 	str	r3, [sp, #64]	; 0x40
 100228c:	e1a0000d 	mov	r0, sp
 1002290:	eb0004c7 	bl	10035b4 <do_reserved>
 1002294:	e59d1034 	ldr	r1, [sp, #52]	; 0x34
 1002298:	e59d2038 	ldr	r2, [sp, #56]	; 0x38
 100229c:	e59d0040 	ldr	r0, [sp, #64]	; 0x40
 10022a0:	e38000c0 	orr	r0, r0, #192	; 0xc0
 10022a4:	e121f000 	msr	CPSR_c, r0
 10022a8:	e1a0d001 	mov	sp, r1
 10022ac:	e1a0e002 	mov	lr, r2
 10022b0:	f1020013 	cps	#19
 10022b4:	e59d003c 	ldr	r0, [sp, #60]	; 0x3c
 10022b8:	e58d0048 	str	r0, [sp, #72]	; 0x48
 10022bc:	e89d1fff 	ldm	sp, {r0, r1, r2, r3, r4, r5, r6, r7, r8, r9, sl, fp, ip}
 10022c0:	e28dd044 	add	sp, sp, #68	; 0x44
 10022c4:	e8bd4000 	pop	{lr}
 10022c8:	f10800c0 	cpsie	if
 10022cc:	f8bd0a00 	rfeia	sp!

010022d0 <_vec_irq>:
 10022d0:	e24ee004 	sub	lr, lr, #4
 10022d4:	f96d0513 	srsdb	sp!, #19
 10022d8:	f1020013 	cps	#19
 10022dc:	f10c00c0 	cpsid	if
 10022e0:	e92d4000 	push	{lr}
 10022e4:	e24dd044 	sub	sp, sp, #68	; 0x44
 10022e8:	e88d1fff 	stm	sp, {r0, r1, r2, r3, r4, r5, r6, r7, r8, r9, sl, fp, ip}
 10022ec:	e59d0048 	ldr	r0, [sp, #72]	; 0x48
 10022f0:	e58d003c 	str	r0, [sp, #60]	; 0x3c
 10022f4:	e59d004c 	ldr	r0, [sp, #76]	; 0x4c
 10022f8:	e1a03000 	mov	r3, r0
 10022fc:	e38000c0 	orr	r0, r0, #192	; 0xc0
 1002300:	e121f000 	msr	CPSR_c, r0
 1002304:	e1a0100d 	mov	r1, sp
 1002308:	e1a0200e 	mov	r2, lr
 100230c:	f1020013 	cps	#19
 1002310:	e58d1034 	str	r1, [sp, #52]	; 0x34
 1002314:	e58d2038 	str	r2, [sp, #56]	; 0x38
 1002318:	e58d3040 	str	r3, [sp, #64]	; 0x40
 100231c:	e1a0000d 	mov	r0, sp
 1002320:	eb0004b1 	bl	10035ec <do_irq>
 1002324:	e59d1034 	ldr	r1, [sp, #52]	; 0x34
 1002328:	e59d2038 	ldr	r2, [sp, #56]	; 0x38
 100232c:	e59d0040 	ldr	r0, [sp, #64]	; 0x40
 1002330:	e38000c0 	orr	r0, r0, #192	; 0xc0
 1002334:	e121f000 	msr	CPSR_c, r0
 1002338:	e1a0d001 	mov	sp, r1
 100233c:	e1a0e002 	mov	lr, r2
 1002340:	f1020013 	cps	#19
 1002344:	e59d003c 	ldr	r0, [sp, #60]	; 0x3c
 1002348:	e58d0048 	str	r0, [sp, #72]	; 0x48
 100234c:	e89d1fff 	ldm	sp, {r0, r1, r2, r3, r4, r5, r6, r7, r8, r9, sl, fp, ip}
 1002350:	e28dd044 	add	sp, sp, #68	; 0x44
 1002354:	e8bd4000 	pop	{lr}
 1002358:	f10800c0 	cpsie	if
 100235c:	f8bd0a00 	rfeia	sp!

01002360 <_vec_fiq>:
 1002360:	e24ee004 	sub	lr, lr, #4
 1002364:	f96d0513 	srsdb	sp!, #19
 1002368:	f1020013 	cps	#19
 100236c:	f10c00c0 	cpsid	if
 1002370:	e92d4000 	push	{lr}
 1002374:	e24dd044 	sub	sp, sp, #68	; 0x44
 1002378:	e88d1fff 	stm	sp, {r0, r1, r2, r3, r4, r5, r6, r7, r8, r9, sl, fp, ip}
 100237c:	e59d0048 	ldr	r0, [sp, #72]	; 0x48
 1002380:	e58d003c 	str	r0, [sp, #60]	; 0x3c
 1002384:	e59d004c 	ldr	r0, [sp, #76]	; 0x4c
 1002388:	e1a03000 	mov	r3, r0
 100238c:	e38000c0 	orr	r0, r0, #192	; 0xc0
 1002390:	e121f000 	msr	CPSR_c, r0
 1002394:	e1a0100d 	mov	r1, sp
 1002398:	e1a0200e 	mov	r2, lr
 100239c:	f1020013 	cps	#19
 10023a0:	e58d1034 	str	r1, [sp, #52]	; 0x34
 10023a4:	e58d2038 	str	r2, [sp, #56]	; 0x38
 10023a8:	e58d3040 	str	r3, [sp, #64]	; 0x40
 10023ac:	e1a0000d 	mov	r0, sp
 10023b0:	eb000490 	bl	10035f8 <do_fiq>
 10023b4:	e59d1034 	ldr	r1, [sp, #52]	; 0x34
 10023b8:	e59d2038 	ldr	r2, [sp, #56]	; 0x38
 10023bc:	e59d0040 	ldr	r0, [sp, #64]	; 0x40
 10023c0:	e38000c0 	orr	r0, r0, #192	; 0xc0
 10023c4:	e121f000 	msr	CPSR_c, r0
 10023c8:	e1a0d001 	mov	sp, r1
 10023cc:	e1a0e002 	mov	lr, r2
 10023d0:	f1020013 	cps	#19
 10023d4:	e59d003c 	ldr	r0, [sp, #60]	; 0x3c
 10023d8:	e58d0048 	str	r0, [sp, #72]	; 0x48
 10023dc:	e89d1fff 	ldm	sp, {r0, r1, r2, r3, r4, r5, r6, r7, r8, r9, sl, fp, ip}
 10023e0:	e28dd044 	add	sp, sp, #68	; 0x44
 10023e4:	e8bd4000 	pop	{lr}
 10023e8:	f10800c0 	cpsie	if
 10023ec:	f8bd0a00 	rfeia	sp!

010023f0 <_vec_reset>:
 10023f0:	e59fd000 	ldr	sp, [pc, #0]	; 10023f8 <stack_addr>
 10023f4:	eb000482 	bl	1003604 <start_kernel>

010023f8 <stack_addr>:
 10023f8:	010033fc 	strdeq	r3, [r0, -ip]

010023fc <stack>:
	...

010033fc <init_bss>:
 10033fc:	e59f301c 	ldr	r3, [pc, #28]	; 1003420 <init_bss+0x24>
 1003400:	e59f201c 	ldr	r2, [pc, #28]	; 1003424 <init_bss+0x28>
 1003404:	e1530002 	cmp	r3, r2
 1003408:	212fff1e 	bxcs	lr
 100340c:	e3a01000 	mov	r1, #0
 1003410:	e4c31001 	strb	r1, [r3], #1
 1003414:	e1530002 	cmp	r3, r2
 1003418:	3afffffc 	bcc	1003410 <init_bss+0x14>
 100341c:	e12fff1e 	bx	lr
 1003420:	01004b00 	tsteq	r0, r0, lsl #22
 1003424:	01005f04 	tsteq	r0, r4, lsl #30

01003428 <dump_regs>:
 1003428:	e92d4070 	push	{r4, r5, r6, lr}
 100342c:	e59fe07c 	ldr	lr, [pc, #124]	; 10034b0 <dump_regs+0x88>
 1003430:	e24dd040 	sub	sp, sp, #64	; 0x40
 1003434:	e1a0c00d 	mov	ip, sp
 1003438:	e1a05000 	mov	r5, r0
 100343c:	e8be000f 	ldm	lr!, {r0, r1, r2, r3}
 1003440:	e8ac000f 	stmia	ip!, {r0, r1, r2, r3}
 1003444:	e8be000f 	ldm	lr!, {r0, r1, r2, r3}
 1003448:	e8ac000f 	stmia	ip!, {r0, r1, r2, r3}
 100344c:	e8be000f 	ldm	lr!, {r0, r1, r2, r3}
 1003450:	e8ac000f 	stmia	ip!, {r0, r1, r2, r3}
 1003454:	e89e000f 	ldm	lr, {r0, r1, r2, r3}
 1003458:	e88c000f 	stm	ip, {r0, r1, r2, r3}
 100345c:	e1a0400d 	mov	r4, sp
 1003460:	e3a06000 	mov	r6, #0
 1003464:	e7940006 	ldr	r0, [r4, r6]
 1003468:	eb000470 	bl	1004630 <puts>
 100346c:	e59f0040 	ldr	r0, [pc, #64]	; 10034b4 <dump_regs+0x8c>
 1003470:	eb00046e 	bl	1004630 <puts>
 1003474:	e7950006 	ldr	r0, [r5, r6]
 1003478:	eb00048c 	bl	10046b0 <print_hex>
 100347c:	e2866004 	add	r6, r6, #4
 1003480:	e59f0030 	ldr	r0, [pc, #48]	; 10034b8 <dump_regs+0x90>
 1003484:	eb000469 	bl	1004630 <puts>
 1003488:	e3560040 	cmp	r6, #64	; 0x40
 100348c:	1afffff4 	bne	1003464 <dump_regs+0x3c>
 1003490:	e59f0024 	ldr	r0, [pc, #36]	; 10034bc <dump_regs+0x94>
 1003494:	eb000465 	bl	1004630 <puts>
 1003498:	e5950040 	ldr	r0, [r5, #64]	; 0x40
 100349c:	eb000483 	bl	10046b0 <print_hex>
 10034a0:	e59f0010 	ldr	r0, [pc, #16]	; 10034b8 <dump_regs+0x90>
 10034a4:	e28dd040 	add	sp, sp, #64	; 0x40
 10034a8:	e8bd4070 	pop	{r4, r5, r6, lr}
 10034ac:	ea00045f 	b	1004630 <puts>
 10034b0:	01004830 	tsteq	r0, r0, lsr r8
 10034b4:	01004960 	tsteq	r0, r0, ror #18
 10034b8:	010049a4 	smlatbeq	r0, r4, r9, r4
 10034bc:	01004924 	tsteq	r0, r4, lsr #18

010034c0 <panic>:
 10034c0:	ffffffff 			; <UNDEFINED> instruction: 0xffffffff
 10034c4:	e12fff1e 	bx	lr

010034c8 <do_undef>:
 10034c8:	e92d4038 	push	{r3, r4, r5, lr}
 10034cc:	e59f40a0 	ldr	r4, [pc, #160]	; 1003574 <do_undef+0xac>
 10034d0:	e59f30a0 	ldr	r3, [pc, #160]	; 1003578 <do_undef+0xb0>
 10034d4:	e1a05000 	mov	r5, r0
 10034d8:	e1540003 	cmp	r4, r3
 10034dc:	e590203c 	ldr	r2, [r0, #60]	; 0x3c
 10034e0:	2a000009 	bcs	100350c <do_undef+0x44>
 10034e4:	e5941008 	ldr	r1, [r4, #8]
 10034e8:	e1520001 	cmp	r2, r1
 10034ec:	1a000003 	bne	1003500 <do_undef+0x38>
 10034f0:	ea00000e 	b	1003530 <do_undef+0x68>
 10034f4:	e5941008 	ldr	r1, [r4, #8]
 10034f8:	e1520001 	cmp	r2, r1
 10034fc:	0a000009 	beq	1003528 <do_undef+0x60>
 1003500:	e2844010 	add	r4, r4, #16
 1003504:	e1540003 	cmp	r4, r3
 1003508:	3afffff9 	bcc	10034f4 <do_undef+0x2c>
 100350c:	e1a00005 	mov	r0, r5
 1003510:	ebffffc4 	bl	1003428 <dump_regs>
 1003514:	ffffffff 			; <UNDEFINED> instruction: 0xffffffff
 1003518:	e595303c 	ldr	r3, [r5, #60]	; 0x3c
 100351c:	e2833004 	add	r3, r3, #4
 1003520:	e585303c 	str	r3, [r5, #60]	; 0x3c
 1003524:	e8bd8038 	pop	{r3, r4, r5, pc}
 1003528:	e3540000 	cmp	r4, #0
 100352c:	0afffff6 	beq	100350c <do_undef+0x44>
 1003530:	e59f0044 	ldr	r0, [pc, #68]	; 100357c <do_undef+0xb4>
 1003534:	eb00043d 	bl	1004630 <puts>
 1003538:	e5940000 	ldr	r0, [r4]
 100353c:	eb00043b 	bl	1004630 <puts>
 1003540:	e59f0038 	ldr	r0, [pc, #56]	; 1003580 <do_undef+0xb8>
 1003544:	eb000439 	bl	1004630 <puts>
 1003548:	e5940004 	ldr	r0, [r4, #4]
 100354c:	eb000457 	bl	10046b0 <print_hex>
 1003550:	e59f002c 	ldr	r0, [pc, #44]	; 1003584 <do_undef+0xbc>
 1003554:	eb000435 	bl	1004630 <puts>
 1003558:	e594000c 	ldr	r0, [r4, #12]
 100355c:	eb000433 	bl	1004630 <puts>
 1003560:	e59f0020 	ldr	r0, [pc, #32]	; 1003588 <do_undef+0xc0>
 1003564:	eb000431 	bl	1004630 <puts>
 1003568:	e1a00005 	mov	r0, r5
 100356c:	ebffffad 	bl	1003428 <dump_regs>
 1003570:	eafffffe 	b	1003570 <do_undef+0xa8>
 1003574:	01005f04 	tsteq	r0, r4, lsl #30
 1003578:	01005f84 	smlabbeq	r0, r4, pc, r5	; <UNPREDICTABLE>
 100357c:	0100495c 	tsteq	r0, ip, asr r9
 1003580:	01004964 	tsteq	r0, r4, ror #18
 1003584:	01004968 	tsteq	r0, r8, ror #18
 1003588:	010049a4 	smlatbeq	r0, r4, r9, r4

0100358c <do_prefetch>:
 100358c:	ffffffff 			; <UNDEFINED> instruction: 0xffffffff
 1003590:	e590303c 	ldr	r3, [r0, #60]	; 0x3c
 1003594:	e2833004 	add	r3, r3, #4
 1003598:	e580303c 	str	r3, [r0, #60]	; 0x3c
 100359c:	e12fff1e 	bx	lr

010035a0 <do_dabort>:
 10035a0:	ffffffff 			; <UNDEFINED> instruction: 0xffffffff
 10035a4:	e590303c 	ldr	r3, [r0, #60]	; 0x3c
 10035a8:	e2833004 	add	r3, r3, #4
 10035ac:	e580303c 	str	r3, [r0, #60]	; 0x3c
 10035b0:	e12fff1e 	bx	lr

010035b4 <do_reserved>:
 10035b4:	ffffffff 			; <UNDEFINED> instruction: 0xffffffff
 10035b8:	e590303c 	ldr	r3, [r0, #60]	; 0x3c
 10035bc:	e2833004 	add	r3, r3, #4
 10035c0:	e580303c 	str	r3, [r0, #60]	; 0x3c
 10035c4:	e12fff1e 	bx	lr

010035c8 <do_swi>:
 10035c8:	e92d4010 	push	{r4, lr}
 10035cc:	e1a04000 	mov	r4, r0
 10035d0:	e59f0010 	ldr	r0, [pc, #16]	; 10035e8 <do_swi+0x20>
 10035d4:	eb000415 	bl	1004630 <puts>
 10035d8:	e594303c 	ldr	r3, [r4, #60]	; 0x3c
 10035dc:	e2833004 	add	r3, r3, #4
 10035e0:	e584303c 	str	r3, [r4, #60]	; 0x3c
 10035e4:	e8bd8010 	pop	{r4, pc}
 10035e8:	01004994 			; <UNDEFINED> instruction: 0x01004994

010035ec <do_irq>:
 10035ec:	e59f0000 	ldr	r0, [pc, #0]	; 10035f4 <do_irq+0x8>
 10035f0:	ea00040e 	b	1004630 <puts>
 10035f4:	010049a8 	smlatbeq	r0, r8, r9, r4

010035f8 <do_fiq>:
 10035f8:	e59f0000 	ldr	r0, [pc, #0]	; 1003600 <do_fiq+0x8>
 10035fc:	ea00040b 	b	1004630 <puts>
 1003600:	010049b8 			; <UNDEFINED> instruction: 0x010049b8

01003604 <start_kernel>:
 1003604:	e52de004 	push	{lr}		; (str lr, [sp, #-4]!)
 1003608:	e24dd02c 	sub	sp, sp, #44	; 0x2c
 100360c:	eb00005d 	bl	1003788 <uart_disable>
 1003610:	e59fe0cc 	ldr	lr, [pc, #204]	; 10036e4 <start_kernel+0xe0>
 1003614:	e28dc004 	add	ip, sp, #4
 1003618:	e8be000f 	ldm	lr!, {r0, r1, r2, r3}
 100361c:	e8ac000f 	stmia	ip!, {r0, r1, r2, r3}
 1003620:	e8be000f 	ldm	lr!, {r0, r1, r2, r3}
 1003624:	e8ac000f 	stmia	ip!, {r0, r1, r2, r3}
 1003628:	e59e3000 	ldr	r3, [lr]
 100362c:	e28d0004 	add	r0, sp, #4
 1003630:	e3a01003 	mov	r1, #3
 1003634:	e58c3000 	str	r3, [ip]
 1003638:	eb000096 	bl	1003898 <pinmux_cfg_many>
 100363c:	e3500000 	cmp	r0, #0
 1003640:	0a000000 	beq	1003648 <start_kernel+0x44>
 1003644:	ffffffff 			; <UNDEFINED> instruction: 0xffffffff
 1003648:	eb0003e8 	bl	10045f0 <gdbstub_init>
 100364c:	e59f1094 	ldr	r1, [pc, #148]	; 10036e8 <start_kernel+0xe4>
 1003650:	e3a00000 	mov	r0, #0
 1003654:	e3a0304b 	mov	r3, #75	; 0x4b
 1003658:	e5810094 	str	r0, [r1, #148]	; 0x94
 100365c:	e1a02003 	mov	r2, r3
 1003660:	e2522001 	subs	r2, r2, #1
 1003664:	1afffffd 	bne	1003660 <start_kernel+0x5c>
 1003668:	e59f207c 	ldr	r2, [pc, #124]	; 10036ec <start_kernel+0xe8>
 100366c:	e5812098 	str	r2, [r1, #152]	; 0x98
 1003670:	e2533001 	subs	r3, r3, #1
 1003674:	1afffffd 	bne	1003670 <start_kernel+0x6c>
 1003678:	e5810098 	str	r0, [r1, #152]	; 0x98
 100367c:	e5913000 	ldr	r3, [r1]
 1003680:	e3c33a07 	bic	r3, r3, #28672	; 0x7000
 1003684:	e3833a02 	orr	r3, r3, #8192	; 0x2000
 1003688:	e5813000 	str	r3, [r1]
 100368c:	e5913008 	ldr	r3, [r1, #8]
 1003690:	e3c33d07 	bic	r3, r3, #448	; 0x1c0
 1003694:	e38330c0 	orr	r3, r3, #192	; 0xc0
 1003698:	e3c33a07 	bic	r3, r3, #28672	; 0x7000
 100369c:	e3833a03 	orr	r3, r3, #12288	; 0x3000
 10036a0:	e3c3390e 	bic	r3, r3, #229376	; 0x38000
 10036a4:	e3833906 	orr	r3, r3, #98304	; 0x18000
 10036a8:	e3c3360e 	bic	r3, r3, #14680064	; 0xe00000
 10036ac:	e3833606 	orr	r3, r3, #6291456	; 0x600000
 10036b0:	e5813008 	str	r3, [r1, #8]
 10036b4:	f10800c0 	cpsie	if
 10036b8:	e59f0030 	ldr	r0, [pc, #48]	; 10036f0 <start_kernel+0xec>
 10036bc:	e3a02801 	mov	r2, #65536	; 0x10000
 10036c0:	e581201c 	str	r2, [r1, #28]
 10036c4:	e1a03000 	mov	r3, r0
 10036c8:	e2533001 	subs	r3, r3, #1
 10036cc:	1afffffd 	bne	10036c8 <start_kernel+0xc4>
 10036d0:	e5812028 	str	r2, [r1, #40]	; 0x28
 10036d4:	e1a03000 	mov	r3, r0
 10036d8:	e2533001 	subs	r3, r3, #1
 10036dc:	1afffffd 	bne	10036d8 <start_kernel+0xd4>
 10036e0:	eafffff6 	b	10036c0 <start_kernel+0xbc>
 10036e4:	01004870 	tsteq	r0, r0, ror r8
 10036e8:	20200000 	eorcs	r0, r0, r0
 10036ec:	0b400010 	bleq	2003734 <__bug_end+0xffd7b0>
 10036f0:	017d7840 	cmneq	sp, r0, asr #16

010036f4 <uart_putc>:
 10036f4:	e59f2034 	ldr	r2, [pc, #52]	; 1003730 <uart_putc+0x3c>
 10036f8:	e5923018 	ldr	r3, [r2, #24]
 10036fc:	e3130020 	tst	r3, #32
 1003700:	1afffffc 	bne	10036f8 <uart_putc+0x4>
 1003704:	e350000a 	cmp	r0, #10
 1003708:	e5820000 	str	r0, [r2]
 100370c:	1a000006 	bne	100372c <uart_putc+0x38>
 1003710:	e5923018 	ldr	r3, [r2, #24]
 1003714:	e3a0000d 	mov	r0, #13
 1003718:	e3130020 	tst	r3, #32
 100371c:	1afffff5 	bne	10036f8 <uart_putc+0x4>
 1003720:	e350000a 	cmp	r0, #10
 1003724:	e5820000 	str	r0, [r2]
 1003728:	0afffff8 	beq	1003710 <uart_putc+0x1c>
 100372c:	e12fff1e 	bx	lr
 1003730:	20201000 	eorcs	r1, r0, r0

01003734 <uart_getc>:
 1003734:	e59f2014 	ldr	r2, [pc, #20]	; 1003750 <uart_getc+0x1c>
 1003738:	e5923018 	ldr	r3, [r2, #24]
 100373c:	e3130010 	tst	r3, #16
 1003740:	1afffffc 	bne	1003738 <uart_getc+0x4>
 1003744:	e59f3004 	ldr	r3, [pc, #4]	; 1003750 <uart_getc+0x1c>
 1003748:	e5930000 	ldr	r0, [r3]
 100374c:	e12fff1e 	bx	lr
 1003750:	20201000 	eorcs	r1, r0, r0

01003754 <uart_flush_rx>:
 1003754:	e59f3028 	ldr	r3, [pc, #40]	; 1003784 <uart_flush_rx+0x30>
 1003758:	e5932018 	ldr	r2, [r3, #24]
 100375c:	e3120010 	tst	r2, #16
 1003760:	112fff1e 	bxne	lr
 1003764:	e5932018 	ldr	r2, [r3, #24]
 1003768:	e3120010 	tst	r2, #16
 100376c:	1afffffc 	bne	1003764 <uart_flush_rx+0x10>
 1003770:	e5932000 	ldr	r2, [r3]
 1003774:	e5932018 	ldr	r2, [r3, #24]
 1003778:	e3120010 	tst	r2, #16
 100377c:	0afffff8 	beq	1003764 <uart_flush_rx+0x10>
 1003780:	e12fff1e 	bx	lr
 1003784:	20201000 	eorcs	r1, r0, r0

01003788 <uart_disable>:
 1003788:	e59f3008 	ldr	r3, [pc, #8]	; 1003798 <uart_disable+0x10>
 100378c:	e3a02000 	mov	r2, #0
 1003790:	e5832030 	str	r2, [r3, #48]	; 0x30
 1003794:	e12fff1e 	bx	lr
 1003798:	20201000 	eorcs	r1, r0, r0

0100379c <uart_enable>:
 100379c:	e59f3044 	ldr	r3, [pc, #68]	; 10037e8 <uart_enable+0x4c>
 10037a0:	e59f1044 	ldr	r1, [pc, #68]	; 10037ec <uart_enable+0x50>
 10037a4:	e3a02000 	mov	r2, #0
 10037a8:	e5832038 	str	r2, [r3, #56]	; 0x38
 10037ac:	e5831044 	str	r1, [r3, #68]	; 0x44
 10037b0:	e3a01001 	mov	r1, #1
 10037b4:	e5831024 	str	r1, [r3, #36]	; 0x24
 10037b8:	e3a01028 	mov	r1, #40	; 0x28
 10037bc:	e5831028 	str	r1, [r3, #40]	; 0x28
 10037c0:	e3100001 	tst	r0, #1
 10037c4:	e3a01060 	mov	r1, #96	; 0x60
 10037c8:	e583102c 	str	r1, [r3, #44]	; 0x2c
 10037cc:	e5832034 	str	r2, [r3, #52]	; 0x34
 10037d0:	13a02010 	movne	r2, #16
 10037d4:	15832038 	strne	r2, [r3, #56]	; 0x38
 10037d8:	e59f2010 	ldr	r2, [pc, #16]	; 10037f0 <uart_enable+0x54>
 10037dc:	e59f3004 	ldr	r3, [pc, #4]	; 10037e8 <uart_enable+0x4c>
 10037e0:	e5832030 	str	r2, [r3, #48]	; 0x30
 10037e4:	e12fff1e 	bx	lr
 10037e8:	20201000 	eorcs	r1, r0, r0
 10037ec:	000007ff 	strdeq	r0, [r0], -pc	; <UNPREDICTABLE>
 10037f0:	00000301 	andeq	r0, r0, r1, lsl #6

010037f4 <pinmux_cfg_one>:
 10037f4:	e5903000 	ldr	r3, [r0]
 10037f8:	e59f208c 	ldr	r2, [pc, #140]	; 100388c <pinmux_cfg_one+0x98>
 10037fc:	e92d0030 	push	{r4, r5}
 1003800:	e0c21392 	smull	r1, r2, r2, r3
 1003804:	e1a04fc3 	asr	r4, r3, #31
 1003808:	e0642142 	rsb	r2, r4, r2, asr #2
 100380c:	e282c302 	add	ip, r2, #134217728	; 0x8000000
 1003810:	e28cc702 	add	ip, ip, #524288	; 0x80000
 1003814:	e1a0c10c 	lsl	ip, ip, #2
 1003818:	e0822102 	add	r2, r2, r2, lsl #2
 100381c:	e59c1000 	ldr	r1, [ip]
 1003820:	e0432082 	sub	r2, r3, r2, lsl #1
 1003824:	e0822082 	add	r2, r2, r2, lsl #1
 1003828:	e3a05007 	mov	r5, #7
 100382c:	e1c15215 	bic	r5, r1, r5, lsl r2
 1003830:	e5901008 	ldr	r1, [r0, #8]
 1003834:	e1a00da4 	lsr	r0, r4, #27
 1003838:	e1854211 	orr	r4, r5, r1, lsl r2
 100383c:	e0833000 	add	r3, r3, r0
 1003840:	e203301f 	and	r3, r3, #31
 1003844:	e0603003 	rsb	r3, r0, r3
 1003848:	e59f0040 	ldr	r0, [pc, #64]	; 1003890 <pinmux_cfg_one+0x9c>
 100384c:	e3a0204b 	mov	r2, #75	; 0x4b
 1003850:	e58c4000 	str	r4, [ip]
 1003854:	e5801094 	str	r1, [r0, #148]	; 0x94
 1003858:	e1a01002 	mov	r1, r2
 100385c:	e2511001 	subs	r1, r1, #1
 1003860:	1afffffd 	bne	100385c <pinmux_cfg_one+0x68>
 1003864:	e59f1028 	ldr	r1, [pc, #40]	; 1003894 <pinmux_cfg_one+0xa0>
 1003868:	e0831001 	add	r1, r3, r1
 100386c:	e1a01101 	lsl	r1, r1, #2
 1003870:	e5813000 	str	r3, [r1]
 1003874:	e2522001 	subs	r2, r2, #1
 1003878:	1afffffd 	bne	1003874 <pinmux_cfg_one+0x80>
 100387c:	e3a00000 	mov	r0, #0
 1003880:	e5810000 	str	r0, [r1]
 1003884:	e8bd0030 	pop	{r4, r5}
 1003888:	e12fff1e 	bx	lr
 100388c:	66666667 	strbtvs	r6, [r6], -r7, ror #12
 1003890:	20200000 	eorcs	r0, r0, r0
 1003894:	08080026 	stmdaeq	r8, {r1, r2, r5}

01003898 <pinmux_cfg_many>:
 1003898:	e92d4070 	push	{r4, r5, r6, lr}
 100389c:	e2516000 	subs	r6, r1, #0
 10038a0:	0a00000a 	beq	10038d0 <pinmux_cfg_many+0x38>
 10038a4:	e1a05000 	mov	r5, r0
 10038a8:	e3a04000 	mov	r4, #0
 10038ac:	e1a00005 	mov	r0, r5
 10038b0:	ebffffcf 	bl	10037f4 <pinmux_cfg_one>
 10038b4:	e3500000 	cmp	r0, #0
 10038b8:	e2844001 	add	r4, r4, #1
 10038bc:	18bd8070 	popne	{r4, r5, r6, pc}
 10038c0:	e1560004 	cmp	r6, r4
 10038c4:	e285500c 	add	r5, r5, #12
 10038c8:	8afffff7 	bhi	10038ac <pinmux_cfg_many+0x14>
 10038cc:	e8bd8070 	pop	{r4, r5, r6, pc}
 10038d0:	e1a00006 	mov	r0, r6
 10038d4:	e8bd8070 	pop	{r4, r5, r6, pc}

010038d8 <_vec_smc_tz>:
 10038d8:	e24ee004 	sub	lr, lr, #4
 10038dc:	f96d0516 	srsdb	sp!, #22
 10038e0:	f1020016 	cps	#22
 10038e4:	f10c00c0 	cpsid	if
 10038e8:	e92d4000 	push	{lr}
 10038ec:	e24dd044 	sub	sp, sp, #68	; 0x44
 10038f0:	e88d1fff 	stm	sp, {r0, r1, r2, r3, r4, r5, r6, r7, r8, r9, sl, fp, ip}
 10038f4:	e59d0048 	ldr	r0, [sp, #72]	; 0x48
 10038f8:	e58d003c 	str	r0, [sp, #60]	; 0x3c
 10038fc:	e59d004c 	ldr	r0, [sp, #76]	; 0x4c
 1003900:	e1a03000 	mov	r3, r0
 1003904:	e38000c0 	orr	r0, r0, #192	; 0xc0
 1003908:	e121f000 	msr	CPSR_c, r0
 100390c:	e1a0100d 	mov	r1, sp
 1003910:	e1a0200e 	mov	r2, lr
 1003914:	f1020016 	cps	#22
 1003918:	e58d1034 	str	r1, [sp, #52]	; 0x34
 100391c:	e58d2038 	str	r2, [sp, #56]	; 0x38
 1003920:	e58d3040 	str	r3, [sp, #64]	; 0x40
 1003924:	e1a0000d 	mov	r0, sp
 1003928:	eb000310 	bl	1004570 <gdbstub_smc_handler>
 100392c:	e59d1034 	ldr	r1, [sp, #52]	; 0x34
 1003930:	e59d2038 	ldr	r2, [sp, #56]	; 0x38
 1003934:	e59d0040 	ldr	r0, [sp, #64]	; 0x40
 1003938:	e38000c0 	orr	r0, r0, #192	; 0xc0
 100393c:	e121f000 	msr	CPSR_c, r0
 1003940:	e1a0d001 	mov	sp, r1
 1003944:	e1a0e002 	mov	lr, r2
 1003948:	f1020016 	cps	#22
 100394c:	e59d003c 	ldr	r0, [sp, #60]	; 0x3c
 1003950:	e58d0048 	str	r0, [sp, #72]	; 0x48
 1003954:	e89d1fff 	ldm	sp, {r0, r1, r2, r3, r4, r5, r6, r7, r8, r9, sl, fp, ip}
 1003958:	e28dd044 	add	sp, sp, #68	; 0x44
 100395c:	e8bd4000 	pop	{lr}
 1003960:	f10800c0 	cpsie	if
 1003964:	f8bd0a00 	rfeia	sp!

01003968 <_vec_fiq_tz>:
 1003968:	e24ee004 	sub	lr, lr, #4
 100396c:	f96d0516 	srsdb	sp!, #22
 1003970:	f1020016 	cps	#22
 1003974:	f10c00c0 	cpsid	if
 1003978:	e92d4000 	push	{lr}
 100397c:	e24dd044 	sub	sp, sp, #68	; 0x44
 1003980:	e88d1fff 	stm	sp, {r0, r1, r2, r3, r4, r5, r6, r7, r8, r9, sl, fp, ip}
 1003984:	e59d0048 	ldr	r0, [sp, #72]	; 0x48
 1003988:	e58d003c 	str	r0, [sp, #60]	; 0x3c
 100398c:	e59d004c 	ldr	r0, [sp, #76]	; 0x4c
 1003990:	e1a03000 	mov	r3, r0
 1003994:	e38000c0 	orr	r0, r0, #192	; 0xc0
 1003998:	e121f000 	msr	CPSR_c, r0
 100399c:	e1a0100d 	mov	r1, sp
 10039a0:	e1a0200e 	mov	r2, lr
 10039a4:	f1020016 	cps	#22
 10039a8:	e58d1034 	str	r1, [sp, #52]	; 0x34
 10039ac:	e58d2038 	str	r2, [sp, #56]	; 0x38
 10039b0:	e58d3040 	str	r3, [sp, #64]	; 0x40
 10039b4:	e1a0000d 	mov	r0, sp
 10039b8:	eb00027a 	bl	10043a8 <gdbstub_io_handler>
 10039bc:	e59d1034 	ldr	r1, [sp, #52]	; 0x34
 10039c0:	e59d2038 	ldr	r2, [sp, #56]	; 0x38
 10039c4:	e59d0040 	ldr	r0, [sp, #64]	; 0x40
 10039c8:	e38000c0 	orr	r0, r0, #192	; 0xc0
 10039cc:	e121f000 	msr	CPSR_c, r0
 10039d0:	e1a0d001 	mov	sp, r1
 10039d4:	e1a0e002 	mov	lr, r2
 10039d8:	f1020016 	cps	#22
 10039dc:	e59d003c 	ldr	r0, [sp, #60]	; 0x3c
 10039e0:	e58d0048 	str	r0, [sp, #72]	; 0x48
 10039e4:	e89d1fff 	ldm	sp, {r0, r1, r2, r3, r4, r5, r6, r7, r8, r9, sl, fp, ip}
 10039e8:	e28dd044 	add	sp, sp, #68	; 0x44
 10039ec:	e8bd4000 	pop	{lr}
 10039f0:	f10800c0 	cpsie	if
 10039f4:	f8bd0a00 	rfeia	sp!

010039f8 <init_monitor>:
 10039f8:	f1020016 	cps	#22
 10039fc:	e1a0d000 	mov	sp, r0
 1003a00:	f1020013 	cps	#19
 1003a04:	e59f000c 	ldr	r0, [pc, #12]	; 1003a18 <monitor_vec_addr>
 1003a08:	ee0c0f30 	mcr	15, 0, r0, cr12, cr0, {1}
 1003a0c:	e3a00004 	mov	r0, #4
 1003a10:	ee010f11 	mcr	15, 0, r0, cr1, cr1, {0}
 1003a14:	e12fff1e 	bx	lr

01003a18 <monitor_vec_addr>:
 1003a18:	01001000 	mrseq	r1, (UNDEF: 0)

01003a1c <send_response>:
 1003a1c:	e92d45f0 	push	{r4, r5, r6, r7, r8, sl, lr}
 1003a20:	e24dd024 	sub	sp, sp, #36	; 0x24
 1003a24:	e28d3020 	add	r3, sp, #32
 1003a28:	e3a02024 	mov	r2, #36	; 0x24
 1003a2c:	e5632001 	strb	r2, [r3, #-1]!
 1003a30:	e58d3000 	str	r3, [sp]
 1003a34:	e3a03001 	mov	r3, #1
 1003a38:	e58d3004 	str	r3, [sp, #4]
 1003a3c:	e28d3018 	add	r3, sp, #24
 1003a40:	e3510000 	cmp	r1, #0
 1003a44:	e58d3010 	str	r3, [sp, #16]
 1003a48:	e3a03003 	mov	r3, #3
 1003a4c:	e58d3014 	str	r3, [sp, #20]
 1003a50:	e58d0008 	str	r0, [sp, #8]
 1003a54:	e58d100c 	str	r1, [sp, #12]
 1003a58:	01a03001 	moveq	r3, r1
 1003a5c:	0a000007 	beq	1003a80 <send_response+0x64>
 1003a60:	e3a02000 	mov	r2, #0
 1003a64:	e1a03002 	mov	r3, r2
 1003a68:	e7d0c002 	ldrb	ip, [r0, r2]
 1003a6c:	e2822001 	add	r2, r2, #1
 1003a70:	e083300c 	add	r3, r3, ip
 1003a74:	e1510002 	cmp	r1, r2
 1003a78:	e6ef3073 	uxtb	r3, r3
 1003a7c:	8afffff9 	bhi	1003a68 <send_response+0x4c>
 1003a80:	e1a01003 	mov	r1, r3
 1003a84:	e28d0019 	add	r0, sp, #25
 1003a88:	e3a03023 	mov	r3, #35	; 0x23
 1003a8c:	e5cd3018 	strb	r3, [sp, #24]
 1003a90:	eb0002f0 	bl	1004658 <put_hex_byte>
 1003a94:	e28d4008 	add	r4, sp, #8
 1003a98:	e28da020 	add	sl, sp, #32
 1003a9c:	e3a06001 	mov	r6, #1
 1003aa0:	e28d701f 	add	r7, sp, #31
 1003aa4:	e3a08000 	mov	r8, #0
 1003aa8:	e0876006 	add	r6, r7, r6
 1003aac:	e1570006 	cmp	r7, r6
 1003ab0:	2a000008 	bcs	1003ad8 <send_response+0xbc>
 1003ab4:	e1a05007 	mov	r5, r7
 1003ab8:	e4d50001 	ldrb	r0, [r5], #1
 1003abc:	ebffff0c 	bl	10036f4 <uart_putc>
 1003ac0:	e1550006 	cmp	r5, r6
 1003ac4:	3afffffb 	bcc	1003ab8 <send_response+0x9c>
 1003ac8:	e2877001 	add	r7, r7, #1
 1003acc:	e2888001 	add	r8, r8, #1
 1003ad0:	e0676006 	rsb	r6, r7, r6
 1003ad4:	e0888006 	add	r8, r8, r6
 1003ad8:	e2844008 	add	r4, r4, #8
 1003adc:	e154000a 	cmp	r4, sl
 1003ae0:	15147008 	ldrne	r7, [r4, #-8]
 1003ae4:	15146004 	ldrne	r6, [r4, #-4]
 1003ae8:	1affffee 	bne	1003aa8 <send_response+0x8c>
 1003aec:	e1a00008 	mov	r0, r8
 1003af0:	e28dd024 	add	sp, sp, #36	; 0x24
 1003af4:	e8bd85f0 	pop	{r4, r5, r6, r7, r8, sl, pc}

01003af8 <detach>:
 1003af8:	e52de004 	push	{lr}		; (str lr, [sp, #-4]!)
 1003afc:	e59f3038 	ldr	r3, [pc, #56]	; 1003b3c <detach+0x44>
 1003b00:	e24dd00c 	sub	sp, sp, #12
 1003b04:	e5933000 	ldr	r3, [r3]
 1003b08:	e28d0004 	add	r0, sp, #4
 1003b0c:	e1a02823 	lsr	r2, r3, #16
 1003b10:	e1cd30b4 	strh	r3, [sp, #4]
 1003b14:	e59f3024 	ldr	r3, [pc, #36]	; 1003b40 <detach+0x48>
 1003b18:	e5cd2006 	strb	r2, [sp, #6]
 1003b1c:	e3a02001 	mov	r2, #1
 1003b20:	e5c32000 	strb	r2, [r3]
 1003b24:	eb0002fb 	bl	1004718 <strlen>
 1003b28:	e1a01000 	mov	r1, r0
 1003b2c:	e28d0004 	add	r0, sp, #4
 1003b30:	ebffffb9 	bl	1003a1c <send_response>
 1003b34:	e28dd00c 	add	sp, sp, #12
 1003b38:	e8bd8000 	pop	{pc}
 1003b3c:	01004a24 	tsteq	r0, r4, lsr #20
 1003b40:	01004b00 	tsteq	r0, r0, lsl #22

01003b44 <qattached>:
 1003b44:	e92d4010 	push	{r4, lr}
 1003b48:	e24dd008 	sub	sp, sp, #8
 1003b4c:	e28d4008 	add	r4, sp, #8
 1003b50:	e3a03031 	mov	r3, #49	; 0x31
 1003b54:	e16430b4 	strh	r3, [r4, #-4]!
 1003b58:	e1a00004 	mov	r0, r4
 1003b5c:	eb0002ed 	bl	1004718 <strlen>
 1003b60:	e1a01000 	mov	r1, r0
 1003b64:	e1a00004 	mov	r0, r4
 1003b68:	ebffffab 	bl	1003a1c <send_response>
 1003b6c:	e28dd008 	add	sp, sp, #8
 1003b70:	e8bd8010 	pop	{r4, pc}

01003b74 <vcont_query>:
 1003b74:	e52de004 	push	{lr}		; (str lr, [sp, #-4]!)
 1003b78:	e59f302c 	ldr	r3, [pc, #44]	; 1003bac <vcont_query+0x38>
 1003b7c:	e24dd014 	sub	sp, sp, #20
 1003b80:	e1a0c00d 	mov	ip, sp
 1003b84:	e893000f 	ldm	r3, {r0, r1, r2, r3}
 1003b88:	e8ac0007 	stmia	ip!, {r0, r1, r2}
 1003b8c:	e1a0000d 	mov	r0, sp
 1003b90:	e1cc30b0 	strh	r3, [ip]
 1003b94:	eb0002df 	bl	1004718 <strlen>
 1003b98:	e1a01000 	mov	r1, r0
 1003b9c:	e1a0000d 	mov	r0, sp
 1003ba0:	ebffff9d 	bl	1003a1c <send_response>
 1003ba4:	e28dd014 	add	sp, sp, #20
 1003ba8:	e8bd8000 	pop	{pc}
 1003bac:	01004a28 	tsteq	r0, r8, lsr #20

01003bb0 <stop_status>:
 1003bb0:	e92d4010 	push	{r4, lr}
 1003bb4:	e59f3024 	ldr	r3, [pc, #36]	; 1003be0 <stop_status+0x30>
 1003bb8:	e24dd008 	sub	sp, sp, #8
 1003bbc:	e28d4008 	add	r4, sp, #8
 1003bc0:	e5243004 	str	r3, [r4, #-4]!
 1003bc4:	e1a00004 	mov	r0, r4
 1003bc8:	eb0002d2 	bl	1004718 <strlen>
 1003bcc:	e1a01000 	mov	r1, r0
 1003bd0:	e1a00004 	mov	r0, r4
 1003bd4:	ebffff90 	bl	1003a1c <send_response>
 1003bd8:	e28dd008 	add	sp, sp, #8
 1003bdc:	e8bd8010 	pop	{r4, pc}
 1003be0:	00353053 	eorseq	r3, r5, r3, asr r0

01003be4 <qsupported>:
 1003be4:	e52de004 	push	{lr}		; (str lr, [sp, #-4]!)
 1003be8:	e59fe038 	ldr	lr, [pc, #56]	; 1003c28 <qsupported+0x44>
 1003bec:	e24dd02c 	sub	sp, sp, #44	; 0x2c
 1003bf0:	e1a0c00d 	mov	ip, sp
 1003bf4:	e8be000f 	ldm	lr!, {r0, r1, r2, r3}
 1003bf8:	e8ac000f 	stmia	ip!, {r0, r1, r2, r3}
 1003bfc:	e8be000f 	ldm	lr!, {r0, r1, r2, r3}
 1003c00:	e8ac000f 	stmia	ip!, {r0, r1, r2, r3}
 1003c04:	e89e0003 	ldm	lr, {r0, r1}
 1003c08:	e88c0003 	stm	ip, {r0, r1}
 1003c0c:	e1a0000d 	mov	r0, sp
 1003c10:	eb0002c0 	bl	1004718 <strlen>
 1003c14:	e1a01000 	mov	r1, r0
 1003c18:	e1a0000d 	mov	r0, sp
 1003c1c:	ebffff7e 	bl	1003a1c <send_response>
 1003c20:	e28dd02c 	add	sp, sp, #44	; 0x2c
 1003c24:	e8bd8000 	pop	{pc}
 1003c28:	01004a38 	tsteq	r0, r8, lsr sl

01003c2c <do_continue>:
 1003c2c:	e1a00001 	mov	r0, r1
 1003c30:	e92d4010 	push	{r4, lr}
 1003c34:	e3a0103b 	mov	r1, #59	; 0x3b
 1003c38:	eb0002df 	bl	10047bc <strchr>
 1003c3c:	e2501000 	subs	r1, r0, #0
 1003c40:	0a000006 	beq	1003c60 <do_continue+0x34>
 1003c44:	e5d13001 	ldrb	r3, [r1, #1]
 1003c48:	e3530063 	cmp	r3, #99	; 0x63
 1003c4c:	0a00000a 	beq	1003c7c <do_continue+0x50>
 1003c50:	e3530074 	cmp	r3, #116	; 0x74
 1003c54:	13a00000 	movne	r0, #0
 1003c58:	11a01000 	movne	r1, r0
 1003c5c:	0a000001 	beq	1003c68 <do_continue+0x3c>
 1003c60:	e8bd4010 	pop	{r4, lr}
 1003c64:	eaffff6c 	b	1003a1c <send_response>
 1003c68:	e59f3020 	ldr	r3, [pc, #32]	; 1003c90 <do_continue+0x64>
 1003c6c:	e3a02000 	mov	r2, #0
 1003c70:	e5c32000 	strb	r2, [r3]
 1003c74:	e3a00001 	mov	r0, #1
 1003c78:	e8bd8010 	pop	{r4, pc}
 1003c7c:	e59f300c 	ldr	r3, [pc, #12]	; 1003c90 <do_continue+0x64>
 1003c80:	e3a02001 	mov	r2, #1
 1003c84:	e5c32000 	strb	r2, [r3]
 1003c88:	e3a00001 	mov	r0, #1
 1003c8c:	e8bd8010 	pop	{r4, pc}
 1003c90:	01004b00 	tsteq	r0, r0, lsl #22

01003c94 <read_hex>:
 1003c94:	e92d40f8 	push	{r3, r4, r5, r6, r7, lr}
 1003c98:	e1a07001 	mov	r7, r1
 1003c9c:	e1a04000 	mov	r4, r0
 1003ca0:	e3a05000 	mov	r5, #0
 1003ca4:	ea000007 	b	1003cc8 <read_hex+0x34>
 1003ca8:	e5542001 	ldrb	r2, [r4, #-1]
 1003cac:	e1a05205 	lsl	r5, r5, #4
 1003cb0:	e2423030 	sub	r3, r2, #48	; 0x30
 1003cb4:	e6ef3073 	uxtb	r3, r3
 1003cb8:	e3530009 	cmp	r3, #9
 1003cbc:	82423057 	subhi	r3, r2, #87	; 0x57
 1003cc0:	86ef3073 	uxtbhi	r3, r3
 1003cc4:	e0835005 	add	r5, r3, r5
 1003cc8:	e1a06004 	mov	r6, r4
 1003ccc:	e4d40001 	ldrb	r0, [r4], #1
 1003cd0:	eb0002ab 	bl	1004784 <is_hex>
 1003cd4:	e3500000 	cmp	r0, #0
 1003cd8:	1afffff2 	bne	1003ca8 <read_hex+0x14>
 1003cdc:	e3570000 	cmp	r7, #0
 1003ce0:	15876000 	strne	r6, [r7]
 1003ce4:	e1a00005 	mov	r0, r5
 1003ce8:	e8bd80f8 	pop	{r3, r4, r5, r6, r7, pc}

01003cec <read_field>:
 1003cec:	e92d4070 	push	{r4, r5, r6, lr}
 1003cf0:	e1a04000 	mov	r4, r0
 1003cf4:	e24dd008 	sub	sp, sp, #8
 1003cf8:	e1a05001 	mov	r5, r1
 1003cfc:	e5900000 	ldr	r0, [r0]
 1003d00:	e1a01002 	mov	r1, r2
 1003d04:	eb0002ac 	bl	10047bc <strchr>
 1003d08:	e2506000 	subs	r6, r0, #0
 1003d0c:	1a000002 	bne	1003d1c <read_field+0x30>
 1003d10:	e3e00000 	mvn	r0, #0
 1003d14:	e28dd008 	add	sp, sp, #8
 1003d18:	e8bd8070 	pop	{r4, r5, r6, pc}
 1003d1c:	e5940000 	ldr	r0, [r4]
 1003d20:	e28d1004 	add	r1, sp, #4
 1003d24:	ebffffda 	bl	1003c94 <read_hex>
 1003d28:	e59d3004 	ldr	r3, [sp, #4]
 1003d2c:	e5850000 	str	r0, [r5]
 1003d30:	e1530006 	cmp	r3, r6
 1003d34:	02833001 	addeq	r3, r3, #1
 1003d38:	05843000 	streq	r3, [r4]
 1003d3c:	03a00000 	moveq	r0, #0
 1003d40:	1afffff2 	bne	1003d10 <read_field+0x24>
 1003d44:	eafffff2 	b	1003d14 <read_field+0x28>

01003d48 <bkpt_op>:
 1003d48:	e92d4010 	push	{r4, lr}
 1003d4c:	e24dd008 	sub	sp, sp, #8
 1003d50:	e2803003 	add	r3, r0, #3
 1003d54:	e28d0008 	add	r0, sp, #8
 1003d58:	e5203008 	str	r3, [r0, #-8]!
 1003d5c:	e1a04001 	mov	r4, r1
 1003d60:	e1a0000d 	mov	r0, sp
 1003d64:	e28d1004 	add	r1, sp, #4
 1003d68:	e3a0202c 	mov	r2, #44	; 0x2c
 1003d6c:	ebffffde 	bl	1003cec <read_field>
 1003d70:	e3500000 	cmp	r0, #0
 1003d74:	159f4034 	ldrne	r4, [pc, #52]	; 1003db0 <bkpt_op+0x68>
 1003d78:	1a000005 	bne	1003d94 <bkpt_op+0x4c>
 1003d7c:	e59d0004 	ldr	r0, [sp, #4]
 1003d80:	e12fff34 	blx	r4
 1003d84:	e59f3028 	ldr	r3, [pc, #40]	; 1003db4 <bkpt_op+0x6c>
 1003d88:	e3500000 	cmp	r0, #0
 1003d8c:	e59f401c 	ldr	r4, [pc, #28]	; 1003db0 <bkpt_op+0x68>
 1003d90:	01a04003 	moveq	r4, r3
 1003d94:	e1a00004 	mov	r0, r4
 1003d98:	eb00025e 	bl	1004718 <strlen>
 1003d9c:	e1a01000 	mov	r1, r0
 1003da0:	e1a00004 	mov	r0, r4
 1003da4:	ebffff1c 	bl	1003a1c <send_response>
 1003da8:	e28dd008 	add	sp, sp, #8
 1003dac:	e8bd8010 	pop	{r4, pc}
 1003db0:	01004a60 	tsteq	r0, r0, ror #20
 1003db4:	01004a24 	tsteq	r0, r4, lsr #20

01003db8 <insert_bkpt>:
 1003db8:	e1a00001 	mov	r0, r1
 1003dbc:	e59f1000 	ldr	r1, [pc, #0]	; 1003dc4 <insert_bkpt+0xc>
 1003dc0:	eaffffe0 	b	1003d48 <bkpt_op>
 1003dc4:	01003e48 	tsteq	r0, r8, asr #28

01003dc8 <remove_bkpt>:
 1003dc8:	e1a00001 	mov	r0, r1
 1003dcc:	e59f1000 	ldr	r1, [pc, #0]	; 1003dd4 <remove_bkpt+0xc>
 1003dd0:	eaffffdc 	b	1003d48 <bkpt_op>
 1003dd4:	01003ed8 	ldrdeq	r3, [r0, -r8]

01003dd8 <activate_bkpt>:
 1003dd8:	e92d4010 	push	{r4, lr}
 1003ddc:	e59f3060 	ldr	r3, [pc, #96]	; 1003e44 <activate_bkpt+0x6c>
 1003de0:	e5902004 	ldr	r2, [r0, #4]
 1003de4:	e24dd008 	sub	sp, sp, #8
 1003de8:	e1520003 	cmp	r2, r3
 1003dec:	e1a04000 	mov	r4, r0
 1003df0:	e58d3004 	str	r3, [sp, #4]
 1003df4:	0a000010 	beq	1003e3c <activate_bkpt+0x64>
 1003df8:	e5901000 	ldr	r1, [r0]
 1003dfc:	e3a02004 	mov	r2, #4
 1003e00:	e2800004 	add	r0, r0, #4
 1003e04:	eb00027e 	bl	1004804 <memcpy>
 1003e08:	e28d1004 	add	r1, sp, #4
 1003e0c:	e5940000 	ldr	r0, [r4]
 1003e10:	e3a02004 	mov	r2, #4
 1003e14:	eb00027a 	bl	1004804 <memcpy>
 1003e18:	e5942000 	ldr	r2, [r4]
 1003e1c:	e3a01000 	mov	r1, #0
 1003e20:	e2823024 	add	r3, r2, #36	; 0x24
 1003e24:	e3c3301f 	bic	r3, r3, #31
 1003e28:	e3c2201f 	bic	r2, r2, #31
 1003e2c:	ee071f95 	mcr	15, 0, r1, cr7, cr5, {4}
 1003e30:	ee071fd5 	mcr	15, 0, r1, cr7, cr5, {6}
 1003e34:	ec423f0c 	mcrr	15, 0, r3, r2, cr12
 1003e38:	ec423f05 	mcrr	15, 0, r3, r2, cr5
 1003e3c:	e28dd008 	add	sp, sp, #8
 1003e40:	e8bd8010 	pop	{r4, pc}
 1003e44:	e161097a 	smc	4250	; 0x109a

01003e48 <add_bkpt>:
 1003e48:	e92d4008 	push	{r3, lr}
 1003e4c:	e3a02000 	mov	r2, #0
 1003e50:	e59f307c 	ldr	r3, [pc, #124]	; 1003ed4 <add_bkpt+0x8c>
 1003e54:	ea000001 	b	1003e60 <add_bkpt+0x18>
 1003e58:	e3520040 	cmp	r2, #64	; 0x40
 1003e5c:	0a000009 	beq	1003e88 <add_bkpt+0x40>
 1003e60:	e7931182 	ldr	r1, [r3, r2, lsl #3]
 1003e64:	e1a0c182 	lsl	ip, r2, #3
 1003e68:	e1500001 	cmp	r0, r1
 1003e6c:	e2822001 	add	r2, r2, #1
 1003e70:	1afffff8 	bne	1003e58 <add_bkpt+0x10>
 1003e74:	e59f0058 	ldr	r0, [pc, #88]	; 1003ed4 <add_bkpt+0x8c>
 1003e78:	e080000c 	add	r0, r0, ip
 1003e7c:	ebffffd5 	bl	1003dd8 <activate_bkpt>
 1003e80:	e3a00000 	mov	r0, #0
 1003e84:	e8bd8008 	pop	{r3, pc}
 1003e88:	e3a02000 	mov	r2, #0
 1003e8c:	ea000001 	b	1003e98 <add_bkpt+0x50>
 1003e90:	e3520040 	cmp	r2, #64	; 0x40
 1003e94:	0a00000c 	beq	1003ecc <add_bkpt+0x84>
 1003e98:	e7931182 	ldr	r1, [r3, r2, lsl #3]
 1003e9c:	e1a0c182 	lsl	ip, r2, #3
 1003ea0:	e3510000 	cmp	r1, #0
 1003ea4:	e2822001 	add	r2, r2, #1
 1003ea8:	1afffff8 	bne	1003e90 <add_bkpt+0x48>
 1003eac:	e59f3020 	ldr	r3, [pc, #32]	; 1003ed4 <add_bkpt+0x8c>
 1003eb0:	e083c00c 	add	ip, r3, ip
 1003eb4:	e3a03000 	mov	r3, #0
 1003eb8:	e88c0009 	stm	ip, {r0, r3}
 1003ebc:	e1a0000c 	mov	r0, ip
 1003ec0:	ebffffc4 	bl	1003dd8 <activate_bkpt>
 1003ec4:	e3a00000 	mov	r0, #0
 1003ec8:	e8bd8008 	pop	{r3, pc}
 1003ecc:	e3a0c000 	mov	ip, #0
 1003ed0:	eafffff7 	b	1003eb4 <add_bkpt+0x6c>
 1003ed4:	01004b04 	tsteq	r0, r4, lsl #22

01003ed8 <del_bkpt>:
 1003ed8:	e92d4038 	push	{r3, r4, r5, lr}
 1003edc:	e3a02000 	mov	r2, #0
 1003ee0:	e59f306c 	ldr	r3, [pc, #108]	; 1003f54 <del_bkpt+0x7c>
 1003ee4:	ea000001 	b	1003ef0 <del_bkpt+0x18>
 1003ee8:	e3520040 	cmp	r2, #64	; 0x40
 1003eec:	0a000016 	beq	1003f4c <del_bkpt+0x74>
 1003ef0:	e7931182 	ldr	r1, [r3, r2, lsl #3]
 1003ef4:	e59f405c 	ldr	r4, [pc, #92]	; 1003f58 <del_bkpt+0x80>
 1003ef8:	e1500001 	cmp	r0, r1
 1003efc:	e1a05182 	lsl	r5, r2, #3
 1003f00:	e2841004 	add	r1, r4, #4
 1003f04:	e2822001 	add	r2, r2, #1
 1003f08:	1afffff6 	bne	1003ee8 <del_bkpt+0x10>
 1003f0c:	e0811005 	add	r1, r1, r5
 1003f10:	e2811004 	add	r1, r1, #4
 1003f14:	e3a02004 	mov	r2, #4
 1003f18:	e0844005 	add	r4, r4, r5
 1003f1c:	eb000238 	bl	1004804 <memcpy>
 1003f20:	e5942004 	ldr	r2, [r4, #4]
 1003f24:	e3a00000 	mov	r0, #0
 1003f28:	e2823024 	add	r3, r2, #36	; 0x24
 1003f2c:	e3c3301f 	bic	r3, r3, #31
 1003f30:	e3c2201f 	bic	r2, r2, #31
 1003f34:	ee070f95 	mcr	15, 0, r0, cr7, cr5, {4}
 1003f38:	ee070fd5 	mcr	15, 0, r0, cr7, cr5, {6}
 1003f3c:	ec423f0c 	mcrr	15, 0, r3, r2, cr12
 1003f40:	ec423f05 	mcrr	15, 0, r3, r2, cr5
 1003f44:	e5840004 	str	r0, [r4, #4]
 1003f48:	e8bd8038 	pop	{r3, r4, r5, pc}
 1003f4c:	e3e00000 	mvn	r0, #0
 1003f50:	e8bd8038 	pop	{r3, r4, r5, pc}
 1003f54:	01004b04 	tsteq	r0, r4, lsl #22
 1003f58:	01004b00 	tsteq	r0, r0, lsl #22

01003f5c <reg_from_str>:
 1003f5c:	e52de004 	push	{lr}		; (str lr, [sp, #-4]!)
 1003f60:	e24dd014 	sub	sp, sp, #20
 1003f64:	e1a01000 	mov	r1, r0
 1003f68:	e3a02008 	mov	r2, #8
 1003f6c:	e28d0004 	add	r0, sp, #4
 1003f70:	eb000223 	bl	1004804 <memcpy>
 1003f74:	e3a03000 	mov	r3, #0
 1003f78:	e28d0004 	add	r0, sp, #4
 1003f7c:	e1a01003 	mov	r1, r3
 1003f80:	e5cd300c 	strb	r3, [sp, #12]
 1003f84:	ebffff42 	bl	1003c94 <read_hex>
 1003f88:	e6bf0f30 	rev	r0, r0
 1003f8c:	e28dd014 	add	sp, sp, #20
 1003f90:	e8bd8000 	pop	{pc}

01003f94 <write_regs>:
 1003f94:	e92d41f0 	push	{r4, r5, r6, r7, r8, lr}
 1003f98:	e2817001 	add	r7, r1, #1
 1003f9c:	e1a08000 	mov	r8, r0
 1003fa0:	e1a00007 	mov	r0, r7
 1003fa4:	e1a06001 	mov	r6, r1
 1003fa8:	eb0001da 	bl	1004718 <strlen>
 1003fac:	e3500e15 	cmp	r0, #336	; 0x150
 1003fb0:	159f4050 	ldrne	r4, [pc, #80]	; 1004008 <write_regs+0x74>
 1003fb4:	0a000005 	beq	1003fd0 <write_regs+0x3c>
 1003fb8:	e1a00004 	mov	r0, r4
 1003fbc:	eb0001d5 	bl	1004718 <strlen>
 1003fc0:	e1a01000 	mov	r1, r0
 1003fc4:	e1a00004 	mov	r0, r4
 1003fc8:	e8bd41f0 	pop	{r4, r5, r6, r7, r8, lr}
 1003fcc:	eafffe92 	b	1003a1c <send_response>
 1003fd0:	e1a04007 	mov	r4, r7
 1003fd4:	e1a05008 	mov	r5, r8
 1003fd8:	e2866081 	add	r6, r6, #129	; 0x81
 1003fdc:	e1a00004 	mov	r0, r4
 1003fe0:	ebffffdd 	bl	1003f5c <reg_from_str>
 1003fe4:	e2844008 	add	r4, r4, #8
 1003fe8:	e1540006 	cmp	r4, r6
 1003fec:	e4850004 	str	r0, [r5], #4
 1003ff0:	1afffff9 	bne	1003fdc <write_regs+0x48>
 1003ff4:	e2870f52 	add	r0, r7, #328	; 0x148
 1003ff8:	ebffffd7 	bl	1003f5c <reg_from_str>
 1003ffc:	e59f4008 	ldr	r4, [pc, #8]	; 100400c <write_regs+0x78>
 1004000:	e5880040 	str	r0, [r8, #64]	; 0x40
 1004004:	eaffffeb 	b	1003fb8 <write_regs+0x24>
 1004008:	01004a64 	tsteq	r0, r4, ror #20
 100400c:	01004a24 	tsteq	r0, r4, lsr #20

01004010 <read_regs>:
 1004010:	e92d47f0 	push	{r4, r5, r6, r7, r8, r9, sl, lr}
 1004014:	e59fa098 	ldr	sl, [pc, #152]	; 10040b4 <read_regs+0xa4>
 1004018:	e1a06000 	mov	r6, r0
 100401c:	e1a08000 	mov	r8, r0
 1004020:	e24a4080 	sub	r4, sl, #128	; 0x80
 1004024:	e4985004 	ldr	r5, [r8], #4
 1004028:	e2847008 	add	r7, r4, #8
 100402c:	e1a00004 	mov	r0, r4
 1004030:	e6ef1075 	uxtb	r1, r5
 1004034:	e2844002 	add	r4, r4, #2
 1004038:	eb000186 	bl	1004658 <put_hex_byte>
 100403c:	e1540007 	cmp	r4, r7
 1004040:	e1a05425 	lsr	r5, r5, #8
 1004044:	1afffff8 	bne	100402c <read_regs+0x1c>
 1004048:	e154000a 	cmp	r4, sl
 100404c:	1afffff4 	bne	1004024 <read_regs+0x14>
 1004050:	e59f5060 	ldr	r5, [pc, #96]	; 10040b8 <read_regs+0xa8>
 1004054:	e24540c8 	sub	r4, r5, #200	; 0xc8
 1004058:	e59f005c 	ldr	r0, [pc, #92]	; 10040bc <read_regs+0xac>
 100405c:	eb0001ad 	bl	1004718 <strlen>
 1004060:	e59f1054 	ldr	r1, [pc, #84]	; 10040bc <read_regs+0xac>
 1004064:	e2802001 	add	r2, r0, #1
 1004068:	e1a00004 	mov	r0, r4
 100406c:	e2844008 	add	r4, r4, #8
 1004070:	eb0001e3 	bl	1004804 <memcpy>
 1004074:	e1540005 	cmp	r4, r5
 1004078:	1afffff6 	bne	1004058 <read_regs+0x48>
 100407c:	e59f703c 	ldr	r7, [pc, #60]	; 10040c0 <read_regs+0xb0>
 1004080:	e5965040 	ldr	r5, [r6, #64]	; 0x40
 1004084:	e2474008 	sub	r4, r7, #8
 1004088:	e1a00004 	mov	r0, r4
 100408c:	e6ef1075 	uxtb	r1, r5
 1004090:	e2844002 	add	r4, r4, #2
 1004094:	eb00016f 	bl	1004658 <put_hex_byte>
 1004098:	e1540007 	cmp	r4, r7
 100409c:	e1a05425 	lsr	r5, r5, #8
 10040a0:	1afffff8 	bne	1004088 <read_regs+0x78>
 10040a4:	e59f0018 	ldr	r0, [pc, #24]	; 10040c4 <read_regs+0xb4>
 10040a8:	e3a01e15 	mov	r1, #336	; 0x150
 10040ac:	e8bd47f0 	pop	{r4, r5, r6, r7, r8, r9, sl, lr}
 10040b0:	eafffe59 	b	1003a1c <send_response>
 10040b4:	01004d84 	smlabbeq	r0, r4, sp, r4
 10040b8:	01004e4c 	tsteq	r0, ip, asr #28
 10040bc:	01004a6c 	tsteq	r0, ip, ror #20
 10040c0:	01004e54 	tsteq	r0, r4, asr lr
 10040c4:	01004d04 	tsteq	r0, r4, lsl #26

010040c8 <mon_panic>:
 10040c8:	ffffffff 			; <UNDEFINED> instruction: 0xffffffff
 10040cc:	e12fff1e 	bx	lr

010040d0 <read_mem>:
 10040d0:	e3520002 	cmp	r2, #2
 10040d4:	0a000010 	beq	100411c <read_mem+0x4c>
 10040d8:	e3520004 	cmp	r2, #4
 10040dc:	0a000008 	beq	1004104 <read_mem+0x34>
 10040e0:	e3520001 	cmp	r2, #1
 10040e4:	0a000001 	beq	10040f0 <read_mem+0x20>
 10040e8:	e3e00000 	mvn	r0, #0
 10040ec:	e12fff1e 	bx	lr
 10040f0:	e5d13000 	ldrb	r3, [r1]
 10040f4:	e5c03000 	strb	r3, [r0]
 10040f8:	e3a00000 	mov	r0, #0
 10040fc:	ee070f9a 	mcr	15, 0, r0, cr7, cr10, {4}
 1004100:	e12fff1e 	bx	lr
 1004104:	e5913000 	ldr	r3, [r1]
 1004108:	e6bf3f33 	rev	r3, r3
 100410c:	e5803000 	str	r3, [r0]
 1004110:	e3a00000 	mov	r0, #0
 1004114:	ee070f9a 	mcr	15, 0, r0, cr7, cr10, {4}
 1004118:	e12fff1e 	bx	lr
 100411c:	e1d130b0 	ldrh	r3, [r1]
 1004120:	e1a02423 	lsr	r2, r3, #8
 1004124:	e1823403 	orr	r3, r2, r3, lsl #8
 1004128:	e1c030b0 	strh	r3, [r0]
 100412c:	e3a00000 	mov	r0, #0
 1004130:	ee070f9a 	mcr	15, 0, r0, cr7, cr10, {4}
 1004134:	e12fff1e 	bx	lr

01004138 <gdb_read_mem>:
 1004138:	e92d40f0 	push	{r4, r5, r6, r7, lr}
 100413c:	e24dd00c 	sub	sp, sp, #12
 1004140:	e2810001 	add	r0, r1, #1
 1004144:	e28d1004 	add	r1, sp, #4
 1004148:	ebfffed1 	bl	1003c94 <read_hex>
 100414c:	e1a06000 	mov	r6, r0
 1004150:	e59d0004 	ldr	r0, [sp, #4]
 1004154:	e5d03000 	ldrb	r3, [r0]
 1004158:	e353002c 	cmp	r3, #44	; 0x2c
 100415c:	159f4078 	ldrne	r4, [pc, #120]	; 10041dc <gdb_read_mem+0xa4>
 1004160:	0a000006 	beq	1004180 <gdb_read_mem+0x48>
 1004164:	e1a00004 	mov	r0, r4
 1004168:	eb00016a 	bl	1004718 <strlen>
 100416c:	e1a01000 	mov	r1, r0
 1004170:	e1a00004 	mov	r0, r4
 1004174:	ebfffe28 	bl	1003a1c <send_response>
 1004178:	e28dd00c 	add	sp, sp, #12
 100417c:	e8bd80f0 	pop	{r4, r5, r6, r7, pc}
 1004180:	e2800001 	add	r0, r0, #1
 1004184:	e3a01000 	mov	r1, #0
 1004188:	ebfffec1 	bl	1003c94 <read_hex>
 100418c:	e2507000 	subs	r7, r0, #0
 1004190:	0a00000f 	beq	10041d4 <gdb_read_mem+0x9c>
 1004194:	e59f5044 	ldr	r5, [pc, #68]	; 10041e0 <gdb_read_mem+0xa8>
 1004198:	e3a04000 	mov	r4, #0
 100419c:	ea000004 	b	10041b4 <gdb_read_mem+0x7c>
 10041a0:	e5dd1000 	ldrb	r1, [sp]
 10041a4:	eb00012b 	bl	1004658 <put_hex_byte>
 10041a8:	e1570004 	cmp	r7, r4
 10041ac:	e2855002 	add	r5, r5, #2
 10041b0:	9a000007 	bls	10041d4 <gdb_read_mem+0x9c>
 10041b4:	e0841006 	add	r1, r4, r6
 10041b8:	e3a02001 	mov	r2, #1
 10041bc:	e1a0000d 	mov	r0, sp
 10041c0:	ebffffc2 	bl	10040d0 <read_mem>
 10041c4:	e3500000 	cmp	r0, #0
 10041c8:	e2844001 	add	r4, r4, #1
 10041cc:	e1a00005 	mov	r0, r5
 10041d0:	0afffff2 	beq	10041a0 <gdb_read_mem+0x68>
 10041d4:	e59f4004 	ldr	r4, [pc, #4]	; 10041e0 <gdb_read_mem+0xa8>
 10041d8:	eaffffe1 	b	1004164 <gdb_read_mem+0x2c>
 10041dc:	01004a60 	tsteq	r0, r0, ror #20
 10041e0:	01004d04 	tsteq	r0, r4, lsl #26

010041e4 <write_mem>:
 10041e4:	e3520002 	cmp	r2, #2
 10041e8:	0a000015 	beq	1004244 <write_mem+0x60>
 10041ec:	e3520004 	cmp	r2, #4
 10041f0:	0a00000f 	beq	1004234 <write_mem+0x50>
 10041f4:	e3520001 	cmp	r2, #1
 10041f8:	0a000001 	beq	1004204 <write_mem+0x20>
 10041fc:	e3e00000 	mvn	r0, #0
 1004200:	e12fff1e 	bx	lr
 1004204:	e5d03000 	ldrb	r3, [r0]
 1004208:	e5c13000 	strb	r3, [r1]
 100420c:	e2813020 	add	r3, r1, #32
 1004210:	e0832002 	add	r2, r3, r2
 1004214:	e3c1101f 	bic	r1, r1, #31
 1004218:	e3c2201f 	bic	r2, r2, #31
 100421c:	e3a00000 	mov	r0, #0
 1004220:	ee070f95 	mcr	15, 0, r0, cr7, cr5, {4}
 1004224:	ee070fd5 	mcr	15, 0, r0, cr7, cr5, {6}
 1004228:	ec412f0c 	mcrr	15, 0, r2, r1, cr12
 100422c:	ec412f05 	mcrr	15, 0, r2, r1, cr5
 1004230:	e12fff1e 	bx	lr
 1004234:	e5903000 	ldr	r3, [r0]
 1004238:	e6bf3f33 	rev	r3, r3
 100423c:	e5813000 	str	r3, [r1]
 1004240:	eafffff1 	b	100420c <write_mem+0x28>
 1004244:	e1d030b0 	ldrh	r3, [r0]
 1004248:	e1a00423 	lsr	r0, r3, #8
 100424c:	e1803403 	orr	r3, r0, r3, lsl #8
 1004250:	e6ff3073 	uxth	r3, r3
 1004254:	e1c130b0 	strh	r3, [r1]
 1004258:	eaffffeb 	b	100420c <write_mem+0x28>

0100425c <gdb_write_mem>:
 100425c:	e92d4030 	push	{r4, r5, lr}
 1004260:	e24dd01c 	sub	sp, sp, #28
 1004264:	e2811001 	add	r1, r1, #1
 1004268:	e28d4018 	add	r4, sp, #24
 100426c:	e5241010 	str	r1, [r4, #-16]!
 1004270:	e1a00004 	mov	r0, r4
 1004274:	e28d1010 	add	r1, sp, #16
 1004278:	e3a0202c 	mov	r2, #44	; 0x2c
 100427c:	ebfffe9a 	bl	1003cec <read_field>
 1004280:	e3500000 	cmp	r0, #0
 1004284:	0a000007 	beq	10042a8 <gdb_write_mem+0x4c>
 1004288:	e59f410c 	ldr	r4, [pc, #268]	; 100439c <gdb_write_mem+0x140>
 100428c:	e1a00004 	mov	r0, r4
 1004290:	eb000120 	bl	1004718 <strlen>
 1004294:	e1a01000 	mov	r1, r0
 1004298:	e1a00004 	mov	r0, r4
 100429c:	ebfffdde 	bl	1003a1c <send_response>
 10042a0:	e28dd01c 	add	sp, sp, #28
 10042a4:	e8bd8030 	pop	{r4, r5, pc}
 10042a8:	e1a00004 	mov	r0, r4
 10042ac:	e28d100c 	add	r1, sp, #12
 10042b0:	e3a0203a 	mov	r2, #58	; 0x3a
 10042b4:	ebfffe8c 	bl	1003cec <read_field>
 10042b8:	e2505000 	subs	r5, r0, #0
 10042bc:	1afffff1 	bne	1004288 <gdb_write_mem+0x2c>
 10042c0:	e59d0008 	ldr	r0, [sp, #8]
 10042c4:	eb000113 	bl	1004718 <strlen>
 10042c8:	e59d300c 	ldr	r3, [sp, #12]
 10042cc:	e1500083 	cmp	r0, r3, lsl #1
 10042d0:	1affffec 	bne	1004288 <gdb_write_mem+0x2c>
 10042d4:	e3530002 	cmp	r3, #2
 10042d8:	13530004 	cmpne	r3, #4
 10042dc:	13a04000 	movne	r4, #0
 10042e0:	03a04001 	moveq	r4, #1
 10042e4:	0a00001c 	beq	100435c <gdb_write_mem+0x100>
 10042e8:	e3530000 	cmp	r3, #0
 10042ec:	11a05004 	movne	r5, r4
 10042f0:	1a000003 	bne	1004304 <gdb_write_mem+0xa8>
 10042f4:	ea000026 	b	1004394 <gdb_write_mem+0x138>
 10042f8:	e59d300c 	ldr	r3, [sp, #12]
 10042fc:	e1530004 	cmp	r3, r4
 1004300:	9a000023 	bls	1004394 <gdb_write_mem+0x138>
 1004304:	e3a02002 	mov	r2, #2
 1004308:	e59d1008 	ldr	r1, [sp, #8]
 100430c:	e28d0014 	add	r0, sp, #20
 1004310:	eb00013b 	bl	1004804 <memcpy>
 1004314:	e3a01000 	mov	r1, #0
 1004318:	e28d0014 	add	r0, sp, #20
 100431c:	e5cd5016 	strb	r5, [sp, #22]
 1004320:	ebfffe5b 	bl	1003c94 <read_hex>
 1004324:	e59d3008 	ldr	r3, [sp, #8]
 1004328:	e59d1010 	ldr	r1, [sp, #16]
 100432c:	e5cd0017 	strb	r0, [sp, #23]
 1004330:	e2833002 	add	r3, r3, #2
 1004334:	e0841001 	add	r1, r4, r1
 1004338:	e28d0017 	add	r0, sp, #23
 100433c:	e3a02001 	mov	r2, #1
 1004340:	e58d3008 	str	r3, [sp, #8]
 1004344:	ebffffa6 	bl	10041e4 <write_mem>
 1004348:	e3500000 	cmp	r0, #0
 100434c:	e2844001 	add	r4, r4, #1
 1004350:	0affffe8 	beq	10042f8 <gdb_write_mem+0x9c>
 1004354:	e59f4044 	ldr	r4, [pc, #68]	; 10043a0 <gdb_write_mem+0x144>
 1004358:	eaffffcb 	b	100428c <gdb_write_mem+0x30>
 100435c:	e1a01005 	mov	r1, r5
 1004360:	e59d0008 	ldr	r0, [sp, #8]
 1004364:	ebfffe4a 	bl	1003c94 <read_hex>
 1004368:	e28d3018 	add	r3, sp, #24
 100436c:	e5230014 	str	r0, [r3, #-20]!
 1004370:	e1a00003 	mov	r0, r3
 1004374:	e59d1010 	ldr	r1, [sp, #16]
 1004378:	e59d200c 	ldr	r2, [sp, #12]
 100437c:	ebffff98 	bl	10041e4 <write_mem>
 1004380:	e59f3018 	ldr	r3, [pc, #24]	; 10043a0 <gdb_write_mem+0x144>
 1004384:	e3500000 	cmp	r0, #0
 1004388:	e59f4014 	ldr	r4, [pc, #20]	; 10043a4 <gdb_write_mem+0x148>
 100438c:	11a04003 	movne	r4, r3
 1004390:	eaffffbd 	b	100428c <gdb_write_mem+0x30>
 1004394:	e59f4008 	ldr	r4, [pc, #8]	; 10043a4 <gdb_write_mem+0x148>
 1004398:	eaffffbb 	b	100428c <gdb_write_mem+0x30>
 100439c:	01004a60 	tsteq	r0, r0, ror #20
 10043a0:	01004a98 			; <UNDEFINED> instruction: 0x01004a98
 10043a4:	01004a24 	tsteq	r0, r4, lsr #20

010043a8 <gdbstub_io_handler>:
 10043a8:	e92d47f0 	push	{r4, r5, r6, r7, r8, r9, sl, lr}
 10043ac:	e59f51a8 	ldr	r5, [pc, #424]	; 100455c <gdbstub_io_handler+0x1b4>
 10043b0:	e24dd008 	sub	sp, sp, #8
 10043b4:	e59f71a4 	ldr	r7, [pc, #420]	; 1004560 <gdbstub_io_handler+0x1b8>
 10043b8:	e1a0a000 	mov	sl, r0
 10043bc:	e1a08005 	mov	r8, r5
 10043c0:	ea000007 	b	10043e4 <gdbstub_io_handler+0x3c>
 10043c4:	e3500003 	cmp	r0, #3
 10043c8:	0a000058 	beq	1004530 <gdbstub_io_handler+0x188>
 10043cc:	e3a00000 	mov	r0, #0
 10043d0:	e1a01000 	mov	r1, r0
 10043d4:	ebfffd90 	bl	1003a1c <send_response>
 10043d8:	e5d73000 	ldrb	r3, [r7]
 10043dc:	e3530000 	cmp	r3, #0
 10043e0:	1a000050 	bne	1004528 <gdbstub_io_handler+0x180>
 10043e4:	ebfffcd2 	bl	1003734 <uart_getc>
 10043e8:	e3500024 	cmp	r0, #36	; 0x24
 10043ec:	0a000006 	beq	100440c <gdbstub_io_handler+0x64>
 10043f0:	dafffff3 	ble	10043c4 <gdbstub_io_handler+0x1c>
 10043f4:	e350002b 	cmp	r0, #43	; 0x2b
 10043f8:	0afffff6 	beq	10043d8 <gdbstub_io_handler+0x30>
 10043fc:	e350002d 	cmp	r0, #45	; 0x2d
 1004400:	1afffff1 	bne	10043cc <gdbstub_io_handler+0x24>
 1004404:	ffffffff 			; <UNDEFINED> instruction: 0xffffffff
 1004408:	eaffffef 	b	10043cc <gdbstub_io_handler+0x24>
 100440c:	e59f4150 	ldr	r4, [pc, #336]	; 1004564 <gdbstub_io_handler+0x1bc>
 1004410:	e3a06000 	mov	r6, #0
 1004414:	ea000001 	b	1004420 <gdbstub_io_handler+0x78>
 1004418:	e0806006 	add	r6, r0, r6
 100441c:	e6ef6076 	uxtb	r6, r6
 1004420:	ebfffcc3 	bl	1003734 <uart_getc>
 1004424:	e6ef0070 	uxtb	r0, r0
 1004428:	e3500023 	cmp	r0, #35	; 0x23
 100442c:	e1a03004 	mov	r3, r4
 1004430:	e4c40001 	strb	r0, [r4], #1
 1004434:	1afffff7 	bne	1004418 <gdbstub_io_handler+0x70>
 1004438:	e3a02000 	mov	r2, #0
 100443c:	e5c32000 	strb	r2, [r3]
 1004440:	ebfffcbb 	bl	1003734 <uart_getc>
 1004444:	e6ef4070 	uxtb	r4, r0
 1004448:	ebfffcb9 	bl	1003734 <uart_getc>
 100444c:	e2443030 	sub	r3, r4, #48	; 0x30
 1004450:	e6ef3073 	uxtb	r3, r3
 1004454:	e6ef0070 	uxtb	r0, r0
 1004458:	e3530009 	cmp	r3, #9
 100445c:	e2402030 	sub	r2, r0, #48	; 0x30
 1004460:	e6ef2072 	uxtb	r2, r2
 1004464:	82443057 	subhi	r3, r4, #87	; 0x57
 1004468:	86ef3073 	uxtbhi	r3, r3
 100446c:	e3520009 	cmp	r2, #9
 1004470:	82402057 	subhi	r2, r0, #87	; 0x57
 1004474:	e1a03203 	lsl	r3, r3, #4
 1004478:	e6ef3073 	uxtb	r3, r3
 100447c:	86ef2072 	uxtbhi	r2, r2
 1004480:	e0822003 	add	r2, r2, r3
 1004484:	e6ef0072 	uxtb	r0, r2
 1004488:	e1500006 	cmp	r0, r6
 100448c:	13a0002d 	movne	r0, #45	; 0x2d
 1004490:	03a0002b 	moveq	r0, #43	; 0x2b
 1004494:	ebfffc96 	bl	10036f4 <uart_putc>
 1004498:	e59f30c8 	ldr	r3, [pc, #200]	; 1004568 <gdbstub_io_handler+0x1c0>
 100449c:	e2432001 	sub	r2, r3, #1
 10044a0:	ea000006 	b	10044c0 <gdbstub_io_handler+0x118>
 10044a4:	e354007d 	cmp	r4, #125	; 0x7d
 10044a8:	e2822001 	add	r2, r2, #1
 10044ac:	04d21001 	ldrbeq	r1, [r2], #1
 10044b0:	15434001 	strbne	r4, [r3, #-1]
 10044b4:	02211020 	eoreq	r1, r1, #32
 10044b8:	05431001 	strbeq	r1, [r3, #-1]
 10044bc:	e2833001 	add	r3, r3, #1
 10044c0:	e5d24000 	ldrb	r4, [r2]
 10044c4:	e3540000 	cmp	r4, #0
 10044c8:	1afffff5 	bne	10044a4 <gdbstub_io_handler+0xfc>
 10044cc:	e5434001 	strb	r4, [r3, #-1]
 10044d0:	ea000001 	b	10044dc <gdbstub_io_handler+0x134>
 10044d4:	e354000e 	cmp	r4, #14
 10044d8:	0affffbb 	beq	10043cc <gdbstub_io_handler+0x24>
 10044dc:	e7959184 	ldr	r9, [r5, r4, lsl #3]
 10044e0:	e1a06184 	lsl	r6, r4, #3
 10044e4:	e1a00009 	mov	r0, r9
 10044e8:	eb00008a 	bl	1004718 <strlen>
 10044ec:	e59f1070 	ldr	r1, [pc, #112]	; 1004564 <gdbstub_io_handler+0x1bc>
 10044f0:	e1a02000 	mov	r2, r0
 10044f4:	e1a00009 	mov	r0, r9
 10044f8:	eb000090 	bl	1004740 <strncmp>
 10044fc:	e3500000 	cmp	r0, #0
 1004500:	e2844001 	add	r4, r4, #1
 1004504:	1afffff2 	bne	10044d4 <gdbstub_io_handler+0x12c>
 1004508:	e0886006 	add	r6, r8, r6
 100450c:	e5963004 	ldr	r3, [r6, #4]
 1004510:	e1a0000a 	mov	r0, sl
 1004514:	e59f1048 	ldr	r1, [pc, #72]	; 1004564 <gdbstub_io_handler+0x1bc>
 1004518:	e12fff33 	blx	r3
 100451c:	e5d73000 	ldrb	r3, [r7]
 1004520:	e3530000 	cmp	r3, #0
 1004524:	0affffae 	beq	10043e4 <gdbstub_io_handler+0x3c>
 1004528:	e28dd008 	add	sp, sp, #8
 100452c:	e8bd87f0 	pop	{r4, r5, r6, r7, r8, r9, sl, pc}
 1004530:	e59f3034 	ldr	r3, [pc, #52]	; 100456c <gdbstub_io_handler+0x1c4>
 1004534:	e28d4008 	add	r4, sp, #8
 1004538:	e5243004 	str	r3, [r4, #-4]!
 100453c:	e1a00004 	mov	r0, r4
 1004540:	e3a03000 	mov	r3, #0
 1004544:	e5c73000 	strb	r3, [r7]
 1004548:	eb000072 	bl	1004718 <strlen>
 100454c:	e1a01000 	mov	r1, r0
 1004550:	e1a00004 	mov	r0, r4
 1004554:	ebfffd30 	bl	1003a1c <send_response>
 1004558:	eaffff9e 	b	10043d8 <gdbstub_io_handler+0x30>
 100455c:	01004894 			; <UNDEFINED> instruction: 0x01004894
 1004560:	01004b00 	tsteq	r0, r0, lsl #22
 1004564:	01004d04 	tsteq	r0, r4, lsl #26
 1004568:	01004d05 	tsteq	r0, r5, lsl #26
 100456c:	00353053 	eorseq	r3, r5, r3, asr r0

01004570 <gdbstub_smc_handler>:
 1004570:	e92d47f0 	push	{r4, r5, r6, r7, r8, r9, sl, lr}
 1004574:	e59f606c 	ldr	r6, [pc, #108]	; 10045e8 <gdbstub_smc_handler+0x78>
 1004578:	e3a04000 	mov	r4, #0
 100457c:	e24dd008 	sub	sp, sp, #8
 1004580:	e59fa064 	ldr	sl, [pc, #100]	; 10045ec <gdbstub_smc_handler+0x7c>
 1004584:	e1a05000 	mov	r5, r0
 1004588:	e2468004 	sub	r8, r6, #4
 100458c:	e1a07004 	mov	r7, r4
 1004590:	ea000001 	b	100459c <gdbstub_smc_handler+0x2c>
 1004594:	e3540c02 	cmp	r4, #512	; 0x200
 1004598:	0a00000e 	beq	10045d8 <gdbstub_smc_handler+0x68>
 100459c:	e7962004 	ldr	r2, [r6, r4]
 10045a0:	e595303c 	ldr	r3, [r5, #60]	; 0x3c
 10045a4:	e2844008 	add	r4, r4, #8
 10045a8:	e1520003 	cmp	r2, r3
 10045ac:	1afffff8 	bne	1004594 <gdbstub_smc_handler+0x24>
 10045b0:	e28d9008 	add	r9, sp, #8
 10045b4:	e529a004 	str	sl, [r9, #-4]!
 10045b8:	e1a00009 	mov	r0, r9
 10045bc:	e5c87000 	strb	r7, [r8]
 10045c0:	eb000054 	bl	1004718 <strlen>
 10045c4:	e1a01000 	mov	r1, r0
 10045c8:	e1a00009 	mov	r0, r9
 10045cc:	ebfffd12 	bl	1003a1c <send_response>
 10045d0:	e3540c02 	cmp	r4, #512	; 0x200
 10045d4:	1afffff0 	bne	100459c <gdbstub_smc_handler+0x2c>
 10045d8:	e1a00005 	mov	r0, r5
 10045dc:	ebffff71 	bl	10043a8 <gdbstub_io_handler>
 10045e0:	e28dd008 	add	sp, sp, #8
 10045e4:	e8bd87f0 	pop	{r4, r5, r6, r7, r8, r9, sl, pc}
 10045e8:	01004b04 	tsteq	r0, r4, lsl #22
 10045ec:	00353053 	eorseq	r3, r5, r3, asr r0

010045f0 <gdbstub_init>:
 10045f0:	e92d4010 	push	{r4, lr}
 10045f4:	e59f002c 	ldr	r0, [pc, #44]	; 1004628 <gdbstub_init+0x38>
 10045f8:	ebfffcfe 	bl	10039f8 <init_monitor>
 10045fc:	e59f3028 	ldr	r3, [pc, #40]	; 100462c <gdbstub_init+0x3c>
 1004600:	e3e02000 	mvn	r2, #0
 1004604:	e583221c 	str	r2, [r3, #540]	; 0x21c
 1004608:	e5832220 	str	r2, [r3, #544]	; 0x220
 100460c:	e5832224 	str	r2, [r3, #548]	; 0x224
 1004610:	e3a020b9 	mov	r2, #185	; 0xb9
 1004614:	e3a00001 	mov	r0, #1
 1004618:	e583220c 	str	r2, [r3, #524]	; 0x20c
 100461c:	ebfffc5e 	bl	100379c <uart_enable>
 1004620:	e8bd4010 	pop	{r4, lr}
 1004624:	eafffc4a 	b	1003754 <uart_flush_rx>
 1004628:	01005ec4 	smlabteq	r0, r4, lr, r5
 100462c:	2000b000 	andcs	fp, r0, r0

01004630 <puts>:
 1004630:	e92d4010 	push	{r4, lr}
 1004634:	e1a04000 	mov	r4, r0
 1004638:	e5d00000 	ldrb	r0, [r0]
 100463c:	e3500000 	cmp	r0, #0
 1004640:	08bd8010 	popeq	{r4, pc}
 1004644:	ebfffc2a 	bl	10036f4 <uart_putc>
 1004648:	e5f40001 	ldrb	r0, [r4, #1]!
 100464c:	e3500000 	cmp	r0, #0
 1004650:	1afffffb 	bne	1004644 <puts+0x14>
 1004654:	e8bd8010 	pop	{r4, pc}

01004658 <put_hex_byte>:
 1004658:	e92d0030 	push	{r4, r5}
 100465c:	e59f3048 	ldr	r3, [pc, #72]	; 10046ac <put_hex_byte+0x54>
 1004660:	e24dd010 	sub	sp, sp, #16
 1004664:	e28d5010 	add	r5, sp, #16
 1004668:	e1a0c000 	mov	ip, r0
 100466c:	e1a04001 	mov	r4, r1
 1004670:	e893000f 	ldm	r3, {r0, r1, r2, r3}
 1004674:	e905000f 	stmdb	r5, {r0, r1, r2, r3}
 1004678:	e0853224 	add	r3, r5, r4, lsr #4
 100467c:	e204400f 	and	r4, r4, #15
 1004680:	e0854004 	add	r4, r5, r4
 1004684:	e5542010 	ldrb	r2, [r4, #-16]
 1004688:	e5531010 	ldrb	r1, [r3, #-16]
 100468c:	e1a0300c 	mov	r3, ip
 1004690:	e4c31001 	strb	r1, [r3], #1
 1004694:	e5cc2001 	strb	r2, [ip, #1]
 1004698:	e3a02000 	mov	r2, #0
 100469c:	e5c32001 	strb	r2, [r3, #1]
 10046a0:	e28dd010 	add	sp, sp, #16
 10046a4:	e8bd0030 	pop	{r4, r5}
 10046a8:	e12fff1e 	bx	lr
 10046ac:	01004904 	tsteq	r0, r4, lsl #18

010046b0 <print_hex>:
 10046b0:	e52de004 	push	{lr}		; (str lr, [sp, #-4]!)
 10046b4:	e59f3058 	ldr	r3, [pc, #88]	; 1004714 <print_hex+0x64>
 10046b8:	e24dd024 	sub	sp, sp, #36	; 0x24
 10046bc:	e28de004 	add	lr, sp, #4
 10046c0:	e1a0c000 	mov	ip, r0
 10046c4:	e893000f 	ldm	r3, {r0, r1, r2, r3}
 10046c8:	e88e000f 	stm	lr, {r0, r1, r2, r3}
 10046cc:	e3a03000 	mov	r3, #0
 10046d0:	e58d3014 	str	r3, [sp, #20]
 10046d4:	e58d3018 	str	r3, [sp, #24]
 10046d8:	e5cd301c 	strb	r3, [sp, #28]
 10046dc:	e28d201c 	add	r2, sp, #28
 10046e0:	e3a0000f 	mov	r0, #15
 10046e4:	e00c1310 	and	r1, ip, r0, lsl r3
 10046e8:	e28de020 	add	lr, sp, #32
 10046ec:	e08e1331 	add	r1, lr, r1, lsr r3
 10046f0:	e2833004 	add	r3, r3, #4
 10046f4:	e551101c 	ldrb	r1, [r1, #-28]
 10046f8:	e3530020 	cmp	r3, #32
 10046fc:	e5621001 	strb	r1, [r2, #-1]!
 1004700:	1afffff7 	bne	10046e4 <print_hex+0x34>
 1004704:	e28d0014 	add	r0, sp, #20
 1004708:	ebffffc8 	bl	1004630 <puts>
 100470c:	e28dd024 	add	sp, sp, #36	; 0x24
 1004710:	e8bd8000 	pop	{pc}
 1004714:	01004914 	tsteq	r0, r4, lsl r9

01004718 <strlen>:
 1004718:	e5d03000 	ldrb	r3, [r0]
 100471c:	e3530000 	cmp	r3, #0
 1004720:	0a000004 	beq	1004738 <strlen+0x20>
 1004724:	e3a03000 	mov	r3, #0
 1004728:	e2833001 	add	r3, r3, #1
 100472c:	e7d02003 	ldrb	r2, [r0, r3]
 1004730:	e3520000 	cmp	r2, #0
 1004734:	1afffffb 	bne	1004728 <strlen+0x10>
 1004738:	e1a00003 	mov	r0, r3
 100473c:	e12fff1e 	bx	lr

01004740 <strncmp>:
 1004740:	e3520000 	cmp	r2, #0
 1004744:	e52d4004 	push	{r4}		; (str r4, [sp, #-4]!)
 1004748:	01a00002 	moveq	r0, r2
 100474c:	0a00000a 	beq	100477c <strncmp+0x3c>
 1004750:	e4d03001 	ldrb	r3, [r0], #1
 1004754:	e4d1c001 	ldrb	ip, [r1], #1
 1004758:	e2734001 	rsbs	r4, r3, #1
 100475c:	33a04000 	movcc	r4, #0
 1004760:	e153000c 	cmp	r3, ip
 1004764:	13844001 	orrne	r4, r4, #1
 1004768:	e3540000 	cmp	r4, #0
 100476c:	1a000001 	bne	1004778 <strncmp+0x38>
 1004770:	e2522001 	subs	r2, r2, #1
 1004774:	1afffff5 	bne	1004750 <strncmp+0x10>
 1004778:	e06c0003 	rsb	r0, ip, r3
 100477c:	e8bd0010 	pop	{r4}
 1004780:	e12fff1e 	bx	lr

01004784 <is_hex>:
 1004784:	e2403041 	sub	r3, r0, #65	; 0x41
 1004788:	e6ef3073 	uxtb	r3, r3
 100478c:	e3530005 	cmp	r3, #5
 1004790:	92800020 	addls	r0, r0, #32
 1004794:	96ef0070 	uxtbls	r0, r0
 1004798:	e2403061 	sub	r3, r0, #97	; 0x61
 100479c:	e2400030 	sub	r0, r0, #48	; 0x30
 10047a0:	e6ef3073 	uxtb	r3, r3
 10047a4:	e6ef0070 	uxtb	r0, r0
 10047a8:	e3500009 	cmp	r0, #9
 10047ac:	83530005 	cmphi	r3, #5
 10047b0:	83a00000 	movhi	r0, #0
 10047b4:	93a00001 	movls	r0, #1
 10047b8:	e12fff1e 	bx	lr

010047bc <strchr>:
 10047bc:	e5d03000 	ldrb	r3, [r0]
 10047c0:	e3530000 	cmp	r3, #0
 10047c4:	0a00000c 	beq	10047fc <strchr+0x40>
 10047c8:	e1530001 	cmp	r3, r1
 10047cc:	12802001 	addne	r2, r0, #1
 10047d0:	1a000002 	bne	10047e0 <strchr+0x24>
 10047d4:	e12fff1e 	bx	lr
 10047d8:	e1530001 	cmp	r3, r1
 10047dc:	012fff1e 	bxeq	lr
 10047e0:	e5d23000 	ldrb	r3, [r2]
 10047e4:	e1a00002 	mov	r0, r2
 10047e8:	e3530000 	cmp	r3, #0
 10047ec:	e2822001 	add	r2, r2, #1
 10047f0:	1afffff8 	bne	10047d8 <strchr+0x1c>
 10047f4:	e1a00003 	mov	r0, r3
 10047f8:	e12fff1e 	bx	lr
 10047fc:	e1a00003 	mov	r0, r3
 1004800:	e12fff1e 	bx	lr

01004804 <memcpy>:
 1004804:	e3520000 	cmp	r2, #0
 1004808:	e1a03000 	mov	r3, r0
 100480c:	012fff1e 	bxeq	lr
 1004810:	e3a00000 	mov	r0, #0
 1004814:	e7d1c000 	ldrb	ip, [r1, r0]
 1004818:	e7c3c000 	strb	ip, [r3, r0]
 100481c:	e2800001 	add	r0, r0, #1
 1004820:	e1500002 	cmp	r0, r2
 1004824:	1afffffa 	bne	1004814 <memcpy+0x10>
 1004828:	e0830000 	add	r0, r3, r0
 100482c:	e12fff1e 	bx	lr

Disassembly of section .rodata:

01004830 <C.4.1757>:
 1004830:	010049e4 	smlatteq	r0, r4, r9, r4
 1004834:	010049e8 	smlatteq	r0, r8, r9, r4
 1004838:	010049ec 	smlatteq	r0, ip, r9, r4
 100483c:	010049f0 	strdeq	r4, [r0, -r0]
 1004840:	010049f4 	strdeq	r4, [r0, -r4]
 1004844:	010049f8 	strdeq	r4, [r0, -r8]
 1004848:	010049fc 	strdeq	r4, [r0, -ip]
 100484c:	01004a00 	tsteq	r0, r0, lsl #20
 1004850:	01004a04 	tsteq	r0, r4, lsl #20
 1004854:	01004a08 	tsteq	r0, r8, lsl #20
 1004858:	01004a0c 	tsteq	r0, ip, lsl #20
 100485c:	01004a10 	tsteq	r0, r0, lsl sl
 1004860:	01004a14 	tsteq	r0, r4, lsl sl
 1004864:	01004a18 	tsteq	r0, r8, lsl sl
 1004868:	01004a1c 	tsteq	r0, ip, lsl sl
 100486c:	01004a20 	tsteq	r0, r0, lsr #20

01004870 <C.0.1725>:
 1004870:	0000000e 	andeq	r0, r0, lr
 1004874:	00000002 	andeq	r0, r0, r2
 1004878:	00000004 	andeq	r0, r0, r4
 100487c:	0000000f 	andeq	r0, r0, pc
 1004880:	00000002 	andeq	r0, r0, r2
 1004884:	00000004 	andeq	r0, r0, r4
 1004888:	00000010 	andeq	r0, r0, r0, lsl r0
 100488c:	00000000 	andeq	r0, r0, r0
 1004890:	00000001 	andeq	r0, r0, r1

01004894 <handlers>:
 1004894:	01004ab0 			; <UNDEFINED> instruction: 0x01004ab0
 1004898:	01003be4 	smlatteq	r0, r4, fp, r3
 100489c:	01004abc 			; <UNDEFINED> instruction: 0x01004abc
 10048a0:	01003bb0 			; <UNDEFINED> instruction: 0x01003bb0
 10048a4:	01004ac0 	smlabteq	r0, r0, sl, r4
 10048a8:	01004010 	tsteq	r0, r0, lsl r0
 10048ac:	01004ac4 	smlabteq	r0, r4, sl, r4
 10048b0:	01003f94 			; <UNDEFINED> instruction: 0x01003f94
 10048b4:	01004ac8 	smlabteq	r0, r8, sl, r4
 10048b8:	01004138 	tsteq	r0, r8, lsr r1
 10048bc:	01004acc 	smlabteq	r0, ip, sl, r4
 10048c0:	0100425c 	tsteq	r0, ip, asr r2
 10048c4:	01004ad0 	ldrdeq	r4, [r0, -r0]
 10048c8:	01003dc8 	smlabteq	r0, r8, sp, r3
 10048cc:	01004ad4 	ldrdeq	r4, [r0, -r4]
 10048d0:	01003db8 			; <UNDEFINED> instruction: 0x01003db8
 10048d4:	01004ad8 	ldrdeq	r4, [r0, -r8]
 10048d8:	01003dc8 	smlabteq	r0, r8, sp, r3
 10048dc:	01004adc 	ldrdeq	r4, [r0, -ip]
 10048e0:	01003db8 			; <UNDEFINED> instruction: 0x01003db8
 10048e4:	01004ae0 	smlatteq	r0, r0, sl, r4
 10048e8:	01003b74 	tsteq	r0, r4, ror fp
 10048ec:	01004ae8 	smlatteq	r0, r8, sl, r4
 10048f0:	01003c2c 	tsteq	r0, ip, lsr #24
 10048f4:	01004af0 	strdeq	r4, [r0, -r0]
 10048f8:	01003b44 	tsteq	r0, r4, asr #22
 10048fc:	01004afc 	strdeq	r4, [r0, -ip]
 1004900:	01003af8 	strdeq	r3, [r0, -r8]

01004904 <C.1.1592>:
 1004904:	33323130 	teqcc	r2, #12
 1004908:	37363534 			; <UNDEFINED> instruction: 0x37363534
 100490c:	62613938 	rsbvs	r3, r1, #917504	; 0xe0000
 1004910:	66656463 	strbtvs	r6, [r5], -r3, ror #8

01004914 <C.0.1585>:
 1004914:	33323130 	teqcc	r2, #12
 1004918:	37363534 			; <UNDEFINED> instruction: 0x37363534
 100491c:	62613938 	rsbvs	r3, r1, #917504	; 0xe0000
 1004920:	66656463 	strbtvs	r6, [r5], -r3, ror #8
 1004924:	72737063 	rsbsvc	r7, r3, #99	; 0x63
 1004928:	0000203a 	andeq	r2, r0, sl, lsr r0
 100492c:	6e72656b 	cdpvs	5, 7, cr6, cr2, cr11, {3}
 1004930:	632e6c65 	teqvs	lr, #25856	; 0x6500
 1004934:	00000000 	andeq	r0, r0, r0
 1004938:	696e6170 	stmdbvs	lr!, {r4, r5, r6, r8, sp, lr}^
 100493c:	202c2163 	eorcs	r2, ip, r3, ror #2
 1004940:	65746e65 	ldrbvs	r6, [r4, #-3685]!	; 0xe65
 1004944:	676e6972 			; <UNDEFINED> instruction: 0x676e6972
 1004948:	666e6920 	strbtvs	r6, [lr], -r0, lsr #18
 100494c:	74696e69 	strbtvc	r6, [r9], #-3689	; 0xe69
 1004950:	6f6c2065 	svcvs	0x006c2065
 1004954:	2e2e706f 	cdpcs	0, 2, cr7, cr14, cr15, {3}
 1004958:	0000002e 	andeq	r0, r0, lr, lsr #32
 100495c:	4755420a 	ldrbmi	r4, [r5, -sl, lsl #4]
 1004960:	0000203a 	andeq	r2, r0, sl, lsr r0
 1004964:	0000003a 	andeq	r0, r0, sl, lsr r0
 1004968:	00000020 	andeq	r0, r0, r0, lsr #32
 100496c:	66657270 			; <UNDEFINED> instruction: 0x66657270
 1004970:	68637465 	stmdavs	r3!, {r0, r2, r5, r6, sl, ip, sp, lr}^
 1004974:	6f626120 	svcvs	0x00626120
 1004978:	000a7472 	andeq	r7, sl, r2, ror r4
 100497c:	61686e75 	smcvs	34533	; 0x86e5
 1004980:	656c646e 	strbvs	r6, [ip, #-1134]!	; 0x46e
 1004984:	78652064 	stmdavc	r5!, {r2, r5, r6, sp}^
 1004988:	74706563 	ldrbtvc	r6, [r0], #-1379	; 0x563
 100498c:	0a6e6f69 	beq	2ba0738 <__bug_end+0x1b9a7b4>
 1004990:	00000000 	andeq	r0, r0, r0
 1004994:	6d206e69 	stcvs	14, cr6, [r0, #-420]!	; 0xfffffe5c
 1004998:	74696e6f 	strbtvc	r6, [r9], #-3695	; 0xe6f
 100499c:	6d20726f 	sfmvs	f7, 4, [r0, #-444]!	; 0xfffffe44
 10049a0:	2165646f 	cmncs	r5, pc, ror #8
 10049a4:	0000000a 	andeq	r0, r0, sl
 10049a8:	69206e69 	stmdbvs	r0!, {r0, r3, r5, r6, r9, sl, fp, sp, lr}
 10049ac:	68207172 	stmdavs	r0!, {r1, r4, r5, r6, r8, ip, sp, lr}
 10049b0:	6c646e61 	stclvs	14, cr6, [r4], #-388	; 0xfffffe7c
 10049b4:	000a7265 	andeq	r7, sl, r5, ror #4
 10049b8:	66206e69 	strtvs	r6, [r0], -r9, ror #28
 10049bc:	68207169 	stmdavs	r0!, {r0, r3, r5, r6, r8, ip, sp, lr}
 10049c0:	6c646e61 	stclvs	14, cr6, [r4], #-388	; 0xfffffe7c
 10049c4:	000a7265 	andeq	r7, sl, r5, ror #4
 10049c8:	6c696166 	stfvse	f6, [r9], #-408	; 0xfffffe68
 10049cc:	74206465 	strtvc	r6, [r0], #-1125	; 0x465
 10049d0:	6f63206f 	svcvs	0x0063206f
 10049d4:	6769666e 	strbvs	r6, [r9, -lr, ror #12]!
 10049d8:	20657275 	rsbcs	r7, r5, r5, ror r2
 10049dc:	6d6e6970 	stclvs	9, cr6, [lr, #-448]!	; 0xfffffe40
 10049e0:	00007875 	andeq	r7, r0, r5, ror r8
 10049e4:	00203072 	eoreq	r3, r0, r2, ror r0
 10049e8:	00203172 	eoreq	r3, r0, r2, ror r1
 10049ec:	00203272 	eoreq	r3, r0, r2, ror r2
 10049f0:	00203372 	eoreq	r3, r0, r2, ror r3
 10049f4:	00203472 	eoreq	r3, r0, r2, ror r4
 10049f8:	00203572 	eoreq	r3, r0, r2, ror r5
 10049fc:	00203672 	eoreq	r3, r0, r2, ror r6
 1004a00:	00203772 	eoreq	r3, r0, r2, ror r7
 1004a04:	00203872 	eoreq	r3, r0, r2, ror r8
 1004a08:	00203972 	eoreq	r3, r0, r2, ror r9
 1004a0c:	00303172 	eorseq	r3, r0, r2, ror r1
 1004a10:	00313172 	eorseq	r3, r1, r2, ror r1
 1004a14:	00323172 	eorseq	r3, r2, r2, ror r1
 1004a18:	00207073 	eoreq	r7, r0, r3, ror r0
 1004a1c:	0020726c 	eoreq	r7, r0, ip, ror #4
 1004a20:	00206370 	eoreq	r6, r0, r0, ror r3
 1004a24:	00004b4f 	andeq	r4, r0, pc, asr #22
 1004a28:	6e6f4376 	mcrvs	3, 3, r4, cr15, cr6, {3}
 1004a2c:	3b633b74 	blcc	28d3804 <__bug_end+0x18cd880>
 1004a30:	3b733b43 	blcc	2cd3744 <__bug_end+0x1ccd7c0>
 1004a34:	00000053 	andeq	r0, r0, r3, asr r0
 1004a38:	70755371 	rsbsvc	r5, r5, r1, ror r3
 1004a3c:	74726f70 	ldrbtvc	r6, [r2], #-3952	; 0xf70
 1004a40:	503a6465 	eorspl	r6, sl, r5, ror #8
 1004a44:	656b6361 	strbvs	r6, [fp, #-865]!	; 0x361
 1004a48:	7a695374 	bvc	2a59820 <__bug_end+0x1a5389c>
 1004a4c:	35323d65 	ldrcc	r3, [r2, #-3429]!	; 0xd65
 1004a50:	756d3b36 	strbvc	r3, [sp, #-2870]!	; 0xb36
 1004a54:	7069746c 	rsbvc	r7, r9, ip, ror #8
 1004a58:	65636f72 	strbvs	r6, [r3, #-3954]!	; 0xf72
 1004a5c:	002b7373 	eoreq	r7, fp, r3, ror r3
 1004a60:	00313045 	eorseq	r3, r1, r5, asr #32
 1004a64:	31302045 	teqcc	r0, r5, asr #32
 1004a68:	00000000 	andeq	r0, r0, r0
 1004a6c:	78787878 	ldmdavc	r8!, {r3, r4, r5, r6, fp, ip, sp, lr}^
 1004a70:	78787878 	ldmdavc	r8!, {r3, r4, r5, r6, fp, ip, sp, lr}^
 1004a74:	00000000 	andeq	r0, r0, r0
 1004a78:	73626467 	cmnvc	r2, #1728053248	; 0x67000000
 1004a7c:	2e627574 	mcrcs	5, 3, r7, cr2, cr4, {3}
 1004a80:	00000063 	andeq	r0, r0, r3, rrx
 1004a84:	696e6f6d 	stmdbvs	lr!, {r0, r2, r3, r5, r6, r8, r9, sl, fp, sp, lr}^
 1004a88:	20726f74 	rsbscs	r6, r2, r4, ror pc
 1004a8c:	696e6170 	stmdbvs	lr!, {r4, r5, r6, r8, sp, lr}^
 1004a90:	21646563 	cmncs	r4, r3, ror #10
 1004a94:	00000000 	andeq	r0, r0, r0
 1004a98:	00323045 	eorseq	r3, r2, r5, asr #32
 1004a9c:	6e617274 	mcrvs	2, 3, r7, cr1, cr4, {3}
 1004aa0:	73696d73 	cmnvc	r9, #7360	; 0x1cc0
 1004aa4:	6e6f6973 	mcrvs	9, 3, r6, cr15, cr3, {3}
 1004aa8:	72726520 	rsbsvc	r6, r2, #134217728	; 0x8000000
 1004aac:	0000726f 	andeq	r7, r0, pc, ror #4
 1004ab0:	70755371 	rsbsvc	r5, r5, r1, ror r3
 1004ab4:	74726f70 	ldrbtvc	r6, [r2], #-3952	; 0xf70
 1004ab8:	003a6465 	eorseq	r6, sl, r5, ror #8
 1004abc:	0000003f 	andeq	r0, r0, pc, lsr r0
 1004ac0:	00000067 	andeq	r0, r0, r7, rrx
 1004ac4:	00000047 	andeq	r0, r0, r7, asr #32
 1004ac8:	0000006d 	andeq	r0, r0, sp, rrx
 1004acc:	0000004d 	andeq	r0, r0, sp, asr #32
 1004ad0:	0000317a 	andeq	r3, r0, sl, ror r1
 1004ad4:	0000315a 	andeq	r3, r0, sl, asr r1
 1004ad8:	0000307a 	andeq	r3, r0, sl, ror r0
 1004adc:	0000305a 	andeq	r3, r0, sl, asr r0
 1004ae0:	6e6f4376 	mcrvs	3, 3, r4, cr15, cr6, {3}
 1004ae4:	00003f74 	andeq	r3, r0, r4, ror pc
 1004ae8:	6e6f4376 	mcrvs	3, 3, r4, cr15, cr6, {3}
 1004aec:	00000074 	andeq	r0, r0, r4, ror r0
 1004af0:	74744171 	ldrbtvc	r4, [r4], #-369	; 0x171
 1004af4:	65686361 	strbvs	r6, [r8, #-865]!	; 0x361
 1004af8:	00000064 	andeq	r0, r0, r4, rrx
 1004afc:	00000044 	andeq	r0, r0, r4, asr #32

Disassembly of section .bss:

01004b00 <running>:
 1004b00:	00000000 	andeq	r0, r0, r0

01004b04 <breakpoints>:
	...

01004d04 <cmd_buf>:
	...

01004f04 <monitor_stack>:
	...

Disassembly of section .bugtable:

01005f04 <.bugtable>:
 1005f04:	0100492c 	tsteq	r0, ip, lsr #18
 1005f08:	00000073 	andeq	r0, r0, r3, ror r0
 1005f0c:	010034c0 	smlabteq	r0, r0, r4, r3
 1005f10:	01004938 	tsteq	r0, r8, lsr r9
 1005f14:	0100492c 	tsteq	r0, ip, lsr #18
 1005f18:	00000073 	andeq	r0, r0, r3, ror r0
 1005f1c:	01003514 	tsteq	r0, r4, lsl r5
 1005f20:	01004938 	tsteq	r0, r8, lsr r9
 1005f24:	0100492c 	tsteq	r0, ip, lsr #18
 1005f28:	000000a7 	andeq	r0, r0, r7, lsr #1
 1005f2c:	0100358c 	smlabbeq	r0, ip, r5, r3
 1005f30:	0100496c 	tsteq	r0, ip, ror #18
 1005f34:	0100492c 	tsteq	r0, ip, lsr #18
 1005f38:	000000ae 	andeq	r0, r0, lr, lsr #1
 1005f3c:	010035a0 	smlatbeq	r0, r0, r5, r3
 1005f40:	0100496c 	tsteq	r0, ip, ror #18
 1005f44:	0100492c 	tsteq	r0, ip, lsr #18
 1005f48:	000000b5 	strheq	r0, [r0], -r5
 1005f4c:	010035b4 			; <UNDEFINED> instruction: 0x010035b4
 1005f50:	0100497c 	tsteq	r0, ip, ror r9
 1005f54:	0100492c 	tsteq	r0, ip, lsr #18
 1005f58:	00000024 	andeq	r0, r0, r4, lsr #32
 1005f5c:	01003644 	tsteq	r0, r4, asr #12
 1005f60:	010049c8 	smlabteq	r0, r8, r9, r4
 1005f64:	01004a78 	tsteq	r0, r8, ror sl
 1005f68:	00000097 	muleq	r0, r7, r0
 1005f6c:	010040c8 	smlabteq	r0, r8, r0, r4
 1005f70:	01004a84 	smlabbeq	r0, r4, sl, r4
 1005f74:	01004a78 	tsteq	r0, r8, ror sl
 1005f78:	000002d4 	ldrdeq	r0, [r0], -r4
 1005f7c:	01004404 	tsteq	r0, r4, lsl #8
 1005f80:	01004a9c 			; <UNDEFINED> instruction: 0x01004a9c

Disassembly of section .ARM.attributes:

00000000 <.ARM.attributes>:
   0:	00002e41 	andeq	r2, r0, r1, asr #28
   4:	61656100 	cmnvs	r5, r0, lsl #2
   8:	01006962 	tsteq	r0, r2, ror #18
   c:	00000024 	andeq	r0, r0, r4, lsr #32
  10:	4b5a3605 	blmi	168d82c <__bug_end+0x6878a8>
  14:	08070600 	stmdaeq	r7, {r9, sl}
  18:	0a010901 	beq	42424 <_monitor_vecs-0xfbebdc>
  1c:	14041204 	strne	r1, [r4], #-516	; 0x204
  20:	17011501 	strne	r1, [r1, -r1, lsl #10]
  24:	1a011803 	bne	46038 <_monitor_vecs-0xfbafc8>
  28:	2c031b02 	stccs	11, cr1, [r3], {2}
  2c:	Address 0x000000000000002c is out of bounds.


Disassembly of section .comment:

00000000 <.comment>:
   0:	3a434347 	bcc	10d0d24 <__bug_end+0xcada0>
   4:	62552820 	subsvs	r2, r5, #2097152	; 0x200000
   8:	75746e75 	ldrbvc	r6, [r4, #-3701]!	; 0xe75
   c:	6e694c2f 	cdpvs	12, 6, cr4, cr9, cr15, {1}
  10:	206f7261 	rsbcs	r7, pc, r1, ror #4
  14:	2e352e34 	mrccs	14, 1, r2, cr5, cr4, {1}
  18:	75382d32 	ldrvc	r2, [r8, #-3378]!	; 0xd32
  1c:	746e7562 	strbtvc	r7, [lr], #-1378	; 0x562
  20:	20293375 	eorcs	r3, r9, r5, ror r3
  24:	2e352e34 	mrccs	14, 1, r2, cr5, cr4, {1}
  28:	Address 0x0000000000000028 is out of bounds.


Disassembly of section .debug_line:

00000000 <.debug_line>:
   0:	0000005e 	andeq	r0, r0, lr, asr r0
   4:	001e0002 	andseq	r0, lr, r2
   8:	01020000 	mrseq	r0, (UNDEF: 2)
   c:	000d0efb 	strdeq	r0, [sp], -fp
  10:	01010101 	tsteq	r1, r1, lsl #2
  14:	01000000 	mrseq	r0, (UNDEF: 0)
  18:	00010000 	andeq	r0, r1, r0
  1c:	72746e65 	rsbsvc	r6, r4, #1616	; 0x650
  20:	00532e79 	subseq	r2, r3, r9, ror lr
  24:	00000000 	andeq	r0, r0, r0
  28:	00020500 	andeq	r0, r2, r0, lsl #10
  2c:	17010000 	strne	r0, [r1, -r0]
  30:	2f2f2f2f 	svccs	0x002f2f2f
  34:	022f2f2f 	eoreq	r2, pc, #188	; 0xbc
  38:	01010002 	tsteq	r1, r2
  3c:	00020500 	andeq	r0, r2, r0, lsl #10
  40:	03010020 	movweq	r0, #4128	; 0x1020
  44:	48020110 	stmdami	r2, {r4, r8}
  48:	14480214 	strbne	r0, [r8], #-532	; 0x214
  4c:	02144802 	andseq	r4, r4, #131072	; 0x20000
  50:	48021448 	stmdami	r2, {r3, r6, sl, ip}
  54:	14480214 	strbne	r0, [r8], #-532	; 0x214
  58:	2f144802 	svccs	0x00144802
  5c:	00108402 	andseq	r8, r0, r2, lsl #8
  60:	015a0101 	cmpeq	sl, r1, lsl #2
  64:	00020000 	andeq	r0, r2, r0
  68:	00000046 	andeq	r0, r0, r6, asr #32
  6c:	0efb0102 	cdpeq	1, 15, cr0, cr11, cr2, {0}
  70:	0101000d 	tsteq	r1, sp
  74:	00000101 	andeq	r0, r0, r1, lsl #2
  78:	00000100 	andeq	r0, r0, r0, lsl #2
  7c:	656b0001 	strbvs	r0, [fp, #-1]!
  80:	6c656e72 	stclvs	14, cr6, [r5], #-456	; 0xfffffe38
  84:	0000632e 	andeq	r6, r0, lr, lsr #6
  88:	6f690000 	svcvs	0x00690000
  8c:	0000682e 	andeq	r6, r0, lr, lsr #16
  90:	70670000 	rsbvc	r0, r7, r0
  94:	682e6f69 	stmdavs	lr!, {r0, r3, r5, r6, r8, r9, sl, fp, sp, lr}
  98:	00000000 	andeq	r0, r0, r0
  9c:	75626564 	strbvc	r6, [r2, #-1380]!	; 0x564
  a0:	00682e67 	rsbeq	r2, r8, r7, ror #28
  a4:	72000000 	andvc	r0, r0, #0
  a8:	2e736765 	cdpcs	7, 7, cr6, cr3, cr5, {3}
  ac:	00000068 	andeq	r0, r0, r8, rrx
  b0:	05000000 	streq	r0, [r0]
  b4:	0033fc02 	eorseq	pc, r3, r2, lsl #24
  b8:	00d30301 	sbcseq	r0, r3, r1, lsl #6
  bc:	02001601 	andeq	r1, r0, #1048576	; 0x100000
  c0:	00830204 	addeq	r0, r3, r4, lsl #4
  c4:	49020402 	stmdbmi	r2, {r1, sl}
  c8:	302c30a3 	eorcc	r3, ip, r3, lsr #1
  cc:	0200302c 	andeq	r3, r0, #44	; 0x2c
  d0:	44080204 	strmi	r0, [r8], #-516	; 0x204
  d4:	02040200 	andeq	r0, r4, #0
  d8:	0402004b 	streq	r0, [r2], #-75	; 0x4b
  dc:	02004b02 	andeq	r4, r0, #2048	; 0x800
  e0:	004b0204 	subeq	r0, fp, r4, lsl #4
  e4:	62020402 	andvs	r0, r2, #33554432	; 0x2000000
  e8:	2f4b4b50 	svccs	0x004b4b50
  ec:	132fa249 	teqne	pc, #-1879048188	; 0x90000004
  f0:	032e2903 	teqeq	lr, #49152	; 0xc000
  f4:	22032e5e 	andcs	r2, r3, #1504	; 0x5e0
  f8:	2e5e034a 	cdpcs	3, 5, cr0, cr14, cr10, {2}
  fc:	032e1603 	teqeq	lr, #3145728	; 0x300000
 100:	d52f2e6a 	strle	r2, [pc, #-3690]!	; fffff29e <__bug_end+0xfeff931a>
 104:	03662403 	cmneq	r6, #50331648	; 0x3000000
 108:	2f036654 	svccs	0x00036654
 10c:	70036701 	andvc	r6, r3, r1, lsl #14
 110:	4a72032e 	bmi	1c80dd0 <__bug_end+0xc7ae4c>
 114:	4b4b4b4b 	blmi	12d2e48 <__bug_end+0x2ccec4>
 118:	034b4b4b 	movteq	r4, #47947	; 0xbb4b
 11c:	2f20081a 	svccs	0x0020081a
 120:	2f316714 	svccs	0x00316714
 124:	2f316714 	svccs	0x00316714
 128:	2e316714 	mrccs	7, 1, r6, cr1, cr4, {0}
 12c:	4d674c2f 	stclmi	12, cr4, [r7, #-188]!	; 0xffffff44
 130:	4e112f13 	mrcmi	15, 0, r2, cr1, cr3, {0}
 134:	50112f13 	andspl	r2, r1, r3, lsl pc
 138:	4a7edb03 	bmi	1fb6d4c <__bug_end+0xfb0dc8>
 13c:	db2e7503 	blle	b9d550 <_monitor_vecs-0x463ab0>
 140:	032f3345 	teqeq	pc, #335544321	; 0x14000001
 144:	046601ac 	strbteq	r0, [r6], #-428	; 0x1ac
 148:	7ebd0302 	cdpvc	3, 11, cr0, cr13, cr2, {0}
 14c:	0301042e 	movweq	r0, #5166	; 0x142e
 150:	02044a0b 	andeq	r4, r4, #45056	; 0xb000
 154:	042e7503 	strteq	r7, [lr], #-1283	; 0x503
 158:	2e0b0301 	cdpcs	3, 0, cr0, cr11, cr1, {0}
 15c:	75030204 	strvc	r0, [r3, #-516]	; 0x204
 160:	03010466 	movweq	r0, #5222	; 0x1466
 164:	02044a0b 	andeq	r4, r4, #45056	; 0xb000
 168:	334a7503 	movtcc	r7, #42243	; 0xa503
 16c:	30030104 	andcc	r0, r3, r4, lsl #2
 170:	02042f2e 	andeq	r2, r4, #184	; 0xb8
 174:	332e4a03 	teqcc	lr, #12288	; 0x3000
 178:	35030104 	strcc	r0, [r3, #-260]	; 0x104
 17c:	2f2f2f2e 	svccs	0x002f2f2e
 180:	2f2f2f2f 	svccs	0x002f2f2f
 184:	bf030204 	svclt	0x00030204
 188:	01042e7f 	tsteq	r4, pc, ror lr
 18c:	2e01c503 	cfsh32cs	mvfx12, mvfx1, #3
 190:	2e7ec603 	cdpcs	6, 7, cr12, cr14, cr3, {0}
 194:	75030204 	strvc	r0, [r3, #-516]	; 0x204
 198:	0402002e 	streq	r0, [r2], #-46	; 0x2e
 19c:	042e0601 	strteq	r0, [lr], #-1537	; 0x601
 1a0:	04020001 	streq	r0, [r2], #-1
 1a4:	0b030601 	bleq	c19b0 <_monitor_vecs-0xf3f650>
 1a8:	0002042e 	andeq	r0, r2, lr, lsr #8
 1ac:	03010402 	movweq	r0, #5122	; 0x1402
 1b0:	01046675 	tsteq	r4, r5, ror r6
 1b4:	01040200 	mrseq	r0, R12_usr
 1b8:	022e0b03 	eoreq	r0, lr, #3072	; 0xc00
 1bc:	01010010 	tsteq	r1, r0, lsl r0
 1c0:	000000e6 	andeq	r0, r0, r6, ror #1
 1c4:	00250002 	eoreq	r0, r5, r2
 1c8:	01020000 	mrseq	r0, (UNDEF: 2)
 1cc:	000d0efb 	strdeq	r0, [sp], -fp
 1d0:	01010101 	tsteq	r1, r1, lsl #2
 1d4:	01000000 	mrseq	r0, (UNDEF: 0)
 1d8:	00010000 	andeq	r0, r1, r0
 1dc:	74726175 	ldrbtvc	r6, [r2], #-373	; 0x175
 1e0:	0000632e 	andeq	r6, r0, lr, lsr #6
 1e4:	6f690000 	svcvs	0x00690000
 1e8:	0000682e 	andeq	r6, r0, lr, lsr #16
 1ec:	00000000 	andeq	r0, r0, r0
 1f0:	36f40205 	ldrbtcc	r0, [r4], r5, lsl #4
 1f4:	c8030100 	stmdagt	r3, {r8}
 1f8:	02040100 	andeq	r0, r4, #0
 1fc:	00014903 	andeq	r4, r1, r3, lsl #18
 200:	06010402 	streq	r0, [r1], -r2, lsl #8
 204:	0001042e 	andeq	r0, r1, lr, lsr #8
 208:	06010402 	streq	r0, [r1], -r2, lsl #8
 20c:	4e2e3803 	cdpmi	8, 2, cr3, cr14, cr3, {0}
 210:	bf030204 	svclt	0x00030204
 214:	01042e7f 	tsteq	r4, pc, ror lr
 218:	2e00c103 	mvfcss	f4, f3
 21c:	44030204 	strmi	r0, [r3], #-516	; 0x204
 220:	0301042e 	movweq	r0, #5166	; 0x142e
 224:	4e292e3d 	mcrmi	14, 1, r2, cr9, cr13, {1}
 228:	bf030204 	svclt	0x00030204
 22c:	01042e7f 	tsteq	r4, pc, ror lr
 230:	2e00c103 	mvfcss	f4, f3
 234:	02044d30 	andeq	r4, r4, #3072	; 0xc00
 238:	017fbf03 	cmneq	pc, r3, lsl #30
 23c:	01040200 	mrseq	r0, R12_usr
 240:	01042e06 	tsteq	r4, r6, lsl #28
 244:	01040200 	mrseq	r0, R12_usr
 248:	00c20306 	sbceq	r0, r2, r6, lsl #6
 24c:	0302042e 	movweq	r0, #9262	; 0x242e
 250:	044a7fbe 	strbeq	r7, [sl], #-4030	; 0xfbe
 254:	00c50301 	sbceq	r0, r5, r1, lsl #6
 258:	02044d4a 	andeq	r4, r4, #4736	; 0x1280
 25c:	017fb803 	cmneq	pc, r3, lsl #16
 260:	c9030104 	stmdbgt	r3, {r2, r8}
 264:	02044a00 	andeq	r4, r4, #0
 268:	4a7fb703 	bmi	1fede7c <__bug_end+0xfe7ef8>
 26c:	c2030104 	andgt	r0, r3, #1
 270:	02042e00 	andeq	r2, r4, #0
 274:	4a7fbe03 	bmi	1fefa88 <__bug_end+0xfe9b04>
 278:	c9030104 	stmdbgt	r3, {r2, r8}
 27c:	04874a00 	streq	r4, [r7], #2560	; 0xa00
 280:	7fad0302 	svcvc	0x00ad0302
 284:	03010401 	movweq	r0, #5121	; 0x1401
 288:	4e6600d5 	mcrmi	0, 3, r0, cr6, cr5, {6}
 28c:	a7030204 	strge	r0, [r3, -r4, lsl #4]
 290:	0104017f 	tsteq	r4, pc, ror r1
 294:	0800e003 	stmdaeq	r0, {r0, r1, sp, lr, pc}
 298:	03020420 	movweq	r0, #9248	; 0x2420
 29c:	042e7fa0 	strteq	r7, [lr], #-4000	; 0xfa0
 2a0:	00e50301 	rsceq	r0, r5, r1, lsl #6
 2a4:	000802f2 	strdeq	r0, [r8], -r2
 2a8:	00950101 	addseq	r0, r5, r1, lsl #2
 2ac:	00020000 	andeq	r0, r2, r0
 2b0:	00000031 	andeq	r0, r0, r1, lsr r0
 2b4:	0efb0102 	cdpeq	1, 15, cr0, cr11, cr2, {0}
 2b8:	0101000d 	tsteq	r1, sp
 2bc:	00000101 	andeq	r0, r0, r1, lsl #2
 2c0:	00000100 	andeq	r0, r0, r0, lsl #2
 2c4:	69700001 	ldmdbvs	r0!, {r0}^
 2c8:	78756d6e 	ldmdavc	r5!, {r1, r2, r3, r5, r6, r8, sl, fp, sp, lr}^
 2cc:	0000632e 	andeq	r6, r0, lr, lsr #6
 2d0:	6f690000 	svcvs	0x00690000
 2d4:	0000682e 	andeq	r6, r0, lr, lsr #16
 2d8:	70670000 	rsbvc	r0, r7, r0
 2dc:	682e6f69 	stmdavs	lr!, {r0, r3, r5, r6, r8, r9, sl, fp, sp, lr}
 2e0:	00000000 	andeq	r0, r0, r0
 2e4:	02050000 	andeq	r0, r5, #0
 2e8:	010037f4 	strdeq	r3, [r0, -r4]
 2ec:	03013603 	movweq	r3, #5635	; 0x1603
 2f0:	55030114 	strpl	r0, [r3, #-276]	; 0x114
 2f4:	2e17032e 	cdpcs	3, 1, cr0, cr7, cr14, {1}
 2f8:	6a2e6903 	bvs	b9a70c <_monitor_vecs-0x4668f4>
 2fc:	03020463 	movweq	r0, #9315	; 0x2463
 300:	01042e71 	tsteq	r4, r1, ror lr
 304:	322e0f03 	eorcc	r0, lr, #12
 308:	03662603 	cmneq	r6, #3145728	; 0x300000
 30c:	7a032e61 	bvc	cbc98 <_monitor_vecs-0xf35368>
 310:	0204342e 	andeq	r3, r4, #771751936	; 0x2e000000
 314:	04666103 	strbteq	r6, [r6], #-259	; 0x103
 318:	02042e01 	andeq	r2, r4, #16
 31c:	4a01042e 	bmi	413dc <_monitor_vecs-0xfbfc24>
 320:	04662403 	strbteq	r2, [r6], #-1027	; 0x403
 324:	665c0302 	ldrbvs	r0, [ip], -r2, lsl #6
 328:	042e0104 	strteq	r0, [lr], #-260	; 0x104
 32c:	01044a02 	tsteq	r4, r2, lsl #20
 330:	a24a2f03 	subge	r2, sl, #12
 334:	2c4b8332 	mcrrcs	3, 3, r8, fp, cr2
 338:	03802c30 	orreq	r2, r0, #12288	; 0x3000
 33c:	02022e09 	andeq	r2, r2, #144	; 0x90
 340:	59010100 	stmdbpl	r1, {r8}
 344:	02000000 	andeq	r0, r0, #0
 348:	00001f00 	andeq	r1, r0, r0, lsl #30
 34c:	fb010200 	blx	40b56 <_monitor_vecs-0xfc04aa>
 350:	01000d0e 	tsteq	r0, lr, lsl #26
 354:	00010101 	andeq	r0, r1, r1, lsl #2
 358:	00010000 	andeq	r0, r1, r0
 35c:	74000100 	strvc	r0, [r0], #-256	; 0x100
 360:	6365767a 	cmnvs	r5, #127926272	; 0x7a00000
 364:	00532e73 	subseq	r2, r3, r3, ror lr
 368:	00000000 	andeq	r0, r0, r0
 36c:	00020500 	andeq	r0, r2, r0, lsl #10
 370:	03010010 	movweq	r0, #4112	; 0x1010
 374:	2f2f010b 	svccs	0x002f010b
 378:	2f2f2f2f 	svccs	0x002f2f2f
 37c:	0002022f 	andeq	r0, r2, pc, lsr #4
 380:	05000101 	streq	r0, [r0, #-257]	; 0x101
 384:	0038d802 	eorseq	sp, r8, r2, lsl #16
 388:	01160301 	tsteq	r6, r1, lsl #6
 38c:	03144802 	tsteq	r4, #131072	; 0x20000
 390:	0148020a 	cmpeq	r8, sl, lsl #4
 394:	2f2f2f2f 	svccs	0x002f2f2f
 398:	022f2f2f 	eoreq	r2, pc, #188	; 0xbc
 39c:	01010004 	tsteq	r1, r4
 3a0:	000003b2 			; <UNDEFINED> instruction: 0x000003b2
 3a4:	003d0002 	eorseq	r0, sp, r2
 3a8:	01020000 	mrseq	r0, (UNDEF: 2)
 3ac:	000d0efb 	strdeq	r0, [sp], -fp
 3b0:	01010101 	tsteq	r1, r1, lsl #2
 3b4:	01000000 	mrseq	r0, (UNDEF: 0)
 3b8:	00010000 	andeq	r0, r1, r0
 3bc:	73626467 	cmnvc	r2, #1728053248	; 0x67000000
 3c0:	2e627574 	mcrcs	5, 3, r7, cr2, cr4, {3}
 3c4:	00000063 	andeq	r0, r0, r3, rrx
 3c8:	2e6f6900 	cdpcs	9, 6, cr6, cr15, cr0, {0}
 3cc:	00000068 	andeq	r0, r0, r8, rrx
 3d0:	70797400 	rsbsvc	r7, r9, r0, lsl #8
 3d4:	682e7365 	stmdavs	lr!, {r0, r2, r5, r6, r8, r9, ip, sp, lr}
 3d8:	00000000 	andeq	r0, r0, r0
 3dc:	73676572 	cmnvc	r7, #478150656	; 0x1c800000
 3e0:	0000682e 	andeq	r6, r0, lr, lsr #16
 3e4:	00000000 	andeq	r0, r0, r0
 3e8:	3a1c0205 	bcc	700c04 <_monitor_vecs-0x9003fc>
 3ec:	e1030100 	mrs	r0, (UNDEF: 19)
 3f0:	684b0101 	stmdavs	fp, {r0, r8}^
 3f4:	2e78038a 	cdpcs	3, 7, cr0, cr8, cr10, {4}
 3f8:	020031a3 	andeq	r3, r0, #-1073741784	; 0xc0000028
 3fc:	2e060204 	cdpcs	2, 0, cr0, cr6, cr4, {0}
 400:	02040200 	andeq	r0, r4, #0
 404:	02004b06 	andeq	r4, r0, #6144	; 0x1800
 408:	002d0204 	eoreq	r0, sp, r4, lsl #4
 40c:	2f020402 	svccs	0x00020402
 410:	02040200 	andeq	r0, r4, #0
 414:	0402002d 	streq	r0, [r2], #-45	; 0x2d
 418:	02002f02 	andeq	r2, r0, #8
 41c:	312d0204 	teqcc	sp, r4, lsl #4
 420:	71034b49 	tstvc	r3, r9, asr #22
 424:	71034f4a 	tstvc	r3, sl, asr #30
 428:	4884312e 	stmmi	r4, {r1, r2, r3, r5, r8, ip, sp}
 42c:	9e780351 	mrcls	3, 3, r0, cr8, cr1, {2}
 430:	66120336 			; <UNDEFINED> instruction: 0x66120336
 434:	6602bf03 	strvs	fp, [r2], -r3, lsl #30
 438:	322f2d2f 	eorcc	r2, pc, #3008	; 0xbc0
 43c:	302c4c2a 	eorcc	r4, ip, sl, lsr #24
 440:	7303834c 	movwvc	r8, #13132	; 0x334c
 444:	9f684b82 	svcls	0x00684b82
 448:	2f4a7503 	svccs	0x004a7503
 44c:	2c682f2d 	stclcs	15, cr2, [r8], #-180	; 0xffffff4c
 450:	9a038330 	bls	e1118 <_monitor_vecs-0xf1fee8>
 454:	2d2f667e 	stccs	6, cr6, [pc, #-504]!	; 264 <_monitor_vecs-0x1000d9c>
 458:	039f4c2f 	orrseq	r4, pc, #12032	; 0x2f00
 45c:	2d2f6675 	stccs	6, cr6, [pc, #-468]!	; 290 <_monitor_vecs-0x1000d70>
 460:	039fd82f 	orrseq	sp, pc, #3080192	; 0x2f0000
 464:	136601cd 	cmnne	r6, #1073741875	; 0x40000033
 468:	4e4c2f2d 	cdpmi	15, 4, cr2, cr12, cr13, {1}
 46c:	03820a03 	orreq	r0, r2, #12288	; 0x3000
 470:	0e034a76 	mcreq	10, 0, r4, cr3, cr6, {3}
 474:	6e2a2a2e 	vmulvs.f32	s4, s20, s29
 478:	034a7403 	movteq	r7, #41987	; 0xa403
 47c:	a803660c 	stmdage	r3, {r2, r3, r9, sl, sp, lr}
 480:	2f2e667e 	svccs	0x002e667e
 484:	032d304c 	teqeq	sp, #76	; 0x4c
 488:	03682e4d 	cmneq	r8, #1232	; 0x4d0
 48c:	02004a32 	andeq	r4, r0, #204800	; 0x32000
 490:	2e060104 	adfcss	f0, f6, f4
 494:	01040200 	mrseq	r0, R12_usr
 498:	2f882c06 	svccs	0x00882c06
 49c:	4a1d0331 	bmi	741168 <_monitor_vecs-0x8bfe98>
 4a0:	4f692f66 	svcmi	0x00692f66
 4a4:	4a7a0332 	bmi	1e81174 <__bug_end+0xe7b1f0>
 4a8:	302f2d67 	eorcc	r2, pc, r7, ror #26
 4ac:	de032a4c 	vmlsle.f32	s4, s6, s24
 4b0:	614f4a01 	cmpvs	pc, r1, lsl #20
 4b4:	332d9f34 	teqcc	sp, #208	; 0xd0
 4b8:	13859fbd 	orrne	r9, r5, #756	; 0x2f4
 4bc:	134e114b 	movtne	r1, #57675	; 0xe14b
 4c0:	8603114b 	strhi	r1, [r3], -fp, asr #2
 4c4:	302f4a7c 	eorcc	r4, pc, ip, ror sl	; <UNPREDICTABLE>
 4c8:	2f2b312b 	svccs	0x002b312b
 4cc:	83833130 	orrhi	r3, r3, #12
 4d0:	032e4003 	teqeq	lr, #3
 4d4:	2d312e0a 	ldccs	14, cr2, [r1, #-40]!	; 0xffffffd8
 4d8:	332e7403 	teqcc	lr, #50331648	; 0x3000000
 4dc:	342e6f03 	strtcc	r6, [lr], #-3843	; 0xf03
 4e0:	2e00c703 	cdpcs	7, 0, cr12, cr0, cr3, {0}
 4e4:	6603bb03 	strvs	fp, [r3], -r3, lsl #22
 4e8:	2e7caf03 	cdpcs	15, 7, cr10, cr12, cr3, {0}
 4ec:	03cf039f 	biceq	r0, pc, #2080374786	; 0x7c000002
 4f0:	7cb1032e 	ldcvc	3, cr0, [r1], #184	; 0xb8
 4f4:	032f2d2e 	teqeq	pc, #2944	; 0xb80
 4f8:	032e03d4 	teqeq	lr, #1342177283	; 0x50000003
 4fc:	a103660a 	tstge	r3, sl, lsl #12
 500:	75034a7c 	strvc	r4, [r3, #-2684]	; 0xa7c
 504:	da034b4a 	ble	d3234 <_monitor_vecs-0xf2ddcc>
 508:	a6032e03 	strge	r2, [r3], -r3, lsl #28
 50c:	2f2d2e7c 	svccs	0x002d2e7c
 510:	03e3032f 	mvneq	r0, #-1140850688	; 0xbc000000
 514:	4d2f2f4a 	stcmi	15, cr2, [pc, #-296]!	; 3f4 <_monitor_vecs-0x1000c0c>
 518:	4a7c9a03 	bmi	1f26d2c <__bug_end+0xf20da8>
 51c:	6603e903 	strvs	lr, [r3], -r3, lsl #18
 520:	2e7c9e03 	cdpcs	14, 7, cr9, cr12, cr3, {0}
 524:	03e0039f 	mvneq	r0, #2080374786	; 0x7c000002
 528:	7ca00366 	stcvc	3, cr0, [r0], #408	; 0x198
 52c:	032f2d2e 	teqeq	pc, #2944	; 0xb80
 530:	2d672e19 	stclcs	14, cr2, [r7, #-100]!	; 0xffffff9c
 534:	7fba032f 	svcvc	0x00ba032f
 538:	2e0a032e 	cdpcs	3, 0, cr0, cr10, cr14, {1}
 53c:	74032d31 	strvc	r2, [r3], #-3377	; 0xd31
 540:	6f03332e 	svcvs	0x0003332e
 544:	3a03342e 	bcc	cd604 <_monitor_vecs-0xf339fc>
 548:	03e2032e 	mvneq	r0, #-1207959552	; 0xb8000000
 54c:	0334292e 	teqeq	r4, #753664	; 0xb8000
 550:	4a667f98 	bmi	19a03b8 <__bug_end+0x99a434>
 554:	492f6731 	stmdbmi	pc!, {r0, r4, r5, r8, r9, sl, sp, lr}	; <UNPREDICTABLE>
 558:	32692f2f 	rsbcc	r2, r9, #188	; 0xbc
 55c:	3329332a 	teqcc	r9, #-1476395008	; 0xa8000000
 560:	0c032d4b 	stceq	13, cr2, [r3], {75}	; 0x4b
 564:	032d832e 	teqeq	sp, #-1207959552	; 0xb8000000
 568:	7a032e74 	bvc	cbf40 <_monitor_vecs-0xf350c0>
 56c:	0402004a 	streq	r0, [r2], #-74	; 0x4a
 570:	2e0c0302 	cdpcs	3, 0, cr0, cr12, cr2, {0}
 574:	02040200 	andeq	r0, r4, #0
 578:	04020065 	streq	r0, [r2], #-101	; 0x65
 57c:	02002f02 	andeq	r2, r0, #8
 580:	302d0204 	eorcc	r0, sp, r4, lsl #4
 584:	5d032c4c 	stcpl	12, cr2, [r3, #-304]	; 0xfffffed0
 588:	352f2d82 	strcc	r2, [pc, #-3458]!	; fffff80e <__bug_end+0xfeff988a>
 58c:	04020029 	streq	r0, [r2], #-41	; 0x29
 590:	02003102 	andeq	r3, r0, #-2147483648	; 0x80000000
 594:	7a030204 	bvc	c0dac <_monitor_vecs-0xf40254>
 598:	2e6a032e 	cdpcs	3, 6, cr0, cr10, cr14, {1}
 59c:	312d2d4b 	teqcc	sp, fp, asr #26
 5a0:	2e1c032b 	cdpcs	3, 1, cr0, cr12, cr11, {1}
 5a4:	70033445 	andvc	r3, r3, r5, asr #8
 5a8:	9e12032e 	cdpls	3, 1, cr0, cr2, cr14, {1}
 5ac:	032e6e03 	teqeq	lr, #48	; 0x30
 5b0:	79032e11 	stmdbvc	r3, {r0, r4, r9, sl, fp, sp}
 5b4:	2e09034a 	cdpcs	3, 0, cr0, cr9, cr10, {2}
 5b8:	2e62032d 	cdpcs	3, 6, cr0, cr2, cr13, {1}
 5bc:	312d2d4b 	teqcc	sp, fp, asr #26
 5c0:	2e22032b 	cdpcs	3, 2, cr0, cr2, cr11, {1}
 5c4:	ac032d4b 	stcge	13, cr2, [r3], {75}	; 0x4b
 5c8:	132fba7d 	teqne	pc, #512000	; 0x7d000
 5cc:	132e0d03 	teqne	lr, #192	; 0xc0
 5d0:	34ba0d03 	ldrtcc	r0, [sl], #3331	; 0xd03
 5d4:	032e7703 	teqeq	lr, #786432	; 0xc0000
 5d8:	034a7fa8 	movteq	r7, #44968	; 0xafa8
 5dc:	034a00e0 	movteq	r0, #41184	; 0xa0e0
 5e0:	03492e71 	movteq	r2, #40561	; 0x9e71
 5e4:	032e7fb0 	teqeq	lr, #704	; 0x2c0
 5e8:	034a00e0 	movteq	r0, #41184	; 0xa0e0
 5ec:	74032e75 	strvc	r2, [r3], #-3701	; 0xe75
 5f0:	4a0b032e 	bmi	2c12b0 <_monitor_vecs-0xd3fd50>
 5f4:	2e7fac03 	cdpcs	12, 7, cr10, cr15, cr3, {0}
 5f8:	4a00e003 	bmi	3860c <_monitor_vecs-0xfc89f4>
 5fc:	2e01a103 	mvfcss	f2, f3
 600:	2d678350 	stclcs	3, cr8, [r7, #-320]!	; 0xfffffec0
 604:	9f2e0f03 	svcls	0x002e0f03
 608:	6b4a7303 	blvs	129d21c <__bug_end+0x297298>
 60c:	474d2f49 	strbmi	r2, [sp, -r9, asr #30]
 610:	2c319d67 	ldccs	13, cr9, [r1], #-412	; 0xfffffe64
 614:	7ed5032c 	cdpvc	3, 13, cr0, cr5, cr12, {1}
 618:	0d031382 	stceq	3, cr1, [r3, #-520]	; 0xfffffdf8
 61c:	770334ba 			; <UNDEFINED> instruction: 0x770334ba
 620:	7f82032e 	svcvc	0x0082032e
 624:	032f4c4a 	teqeq	pc, #18944	; 0x4a00
 628:	034f2e73 	movteq	r2, #65139	; 0xfe73
 62c:	03342e6f 	teqeq	r4, #1776	; 0x6f0
 630:	032e0196 	teqeq	lr, #-2147483611	; 0x80000025
 634:	31682e70 	smccc	33504	; 0x82e0
 638:	032e5d03 	teqeq	lr, #192	; 0xc0
 63c:	03306622 	teqeq	r0, #35651584	; 0x2200000
 640:	502e01d2 	ldrdpl	r0, [lr], -r2	; <UNPREDICTABLE>
 644:	03666703 	cmneq	r6, #786432	; 0xc0000
 648:	034d821a 	movteq	r8, #53786	; 0xd21a
 64c:	039f2e1f 	orrseq	r2, pc, #496	; 0x1f0
 650:	15034a48 	strne	r4, [r3, #-2632]	; 0xa48
 654:	03654c82 	cmneq	r5, #33280	; 0x8200
 658:	02004a0b 	andeq	r4, r0, #45056	; 0xb000
 65c:	09030104 	stmdbeq	r3, {r2, r8}
 660:	0402009e 	streq	r0, [r2], #-158	; 0x9e
 664:	2e5e0301 	cdpcs	3, 5, cr0, cr14, cr1, {0}
 668:	01040200 	mrseq	r0, R12_usr
 66c:	062e2203 	strteq	r2, [lr], -r3, lsl #4
 670:	5d03064a 	stcpl	6, cr0, [r3, #-296]	; 0xfffffed8
 674:	2f498466 	svccs	0x00498466
 678:	2e23032f 	cdpcs	3, 2, cr0, cr3, cr15, {1}
 67c:	2f2e5c03 	svccs	0x002e5c03
 680:	032e2303 	teqeq	lr, #201326592	; 0xc000000
 684:	2303665d 	movwcs	r6, #13917	; 0x365d
 688:	2f31472e 	svccs	0x0031472e
 68c:	9f4a7403 	svcls	0x004a7403
 690:	9e100383 	cdpls	3, 1, cr0, cr0, cr3, {4}
 694:	9e028603 	cfmadd32ls	mvax0, mvfx8, mvfx2, mvfx3
 698:	2e470382 	cdpcs	3, 4, cr0, cr7, cr2, {4}
 69c:	034a3d03 	movteq	r3, #44291	; 0xad03
 6a0:	034a7ceb 	movteq	r7, #44267	; 0xaceb
 6a4:	036603a7 	cmneq	r6, #-1677721598	; 0x9c000002
 6a8:	0330666c 	teqeq	r0, #113246208	; 0x6c00000
 6ac:	5103f20d 	tstpl	r3, sp, lsl #4
 6b0:	2e22032e 	cdpcs	3, 2, cr0, cr2, cr14, {1}
 6b4:	034a6a03 	movteq	r6, #43523	; 0xaa03
 6b8:	034a7cd9 	movteq	r7, #44249	; 0xacd9
 6bc:	034a03a5 	movteq	r0, #41893	; 0xa3a5
 6c0:	bd032e1e 	stclt	14, cr2, [r3, #-120]	; 0xffffff88
 6c4:	a5032e7c 	strge	r2, [r3, #-3708]	; 0xe7c
 6c8:	03322e03 	teqeq	r2, #48	; 0x30
 6cc:	4b4a7cf0 	blmi	129fa94 <__bug_end+0x299b10>
 6d0:	032e7603 	teqeq	lr, #3145728	; 0x300000
 6d4:	76034a0a 	strvc	r4, [r3], -sl, lsl #20
 6d8:	3048682e 	subcc	r6, r8, lr, lsr #16
 6dc:	032e0a03 	teqeq	lr, #12288	; 0x3000
 6e0:	0a034a76 	beq	d30c0 <_monitor_vecs-0xf2df40>
 6e4:	8d03352e 	cfstr32hi	mvfx3, [r3, #-184]	; 0xffffff48
 6e8:	5c03ba03 	stcpl	10, cr11, [r3], {3}
 6ec:	2a342d4a 	bcs	d0bc1c <_monitor_vecs-0x2f53e4>
 6f0:	66790332 			; <UNDEFINED> instruction: 0x66790332
 6f4:	03660903 	cmneq	r6, #49152	; 0xc000
 6f8:	034b4a6c 	movteq	r4, #47724	; 0xba6c
 6fc:	48032e38 	stmdami	r3, {r3, r4, r5, r9, sl, fp, sp}
 700:	032fd52e 	teqeq	pc, #192937984	; 0xb800000
 704:	1b032e34 	blne	cbfdc <_monitor_vecs-0xf35024>
 708:	b703679e 			; <UNDEFINED> instruction: 0xb703679e
 70c:	2c6a4a7c 	stclcs	10, cr4, [sl], #-496	; 0xfffffe10
 710:	03b8034c 			; <UNDEFINED> instruction: 0x03b8034c
 714:	7cb20382 	ldcvc	3, cr0, [r2], #520	; 0x208
 718:	827803ba 	rsbshi	r0, r8, #-402653182	; 0xe8000002
 71c:	76033236 			; <UNDEFINED> instruction: 0x76033236
 720:	4a09032e 	bmi	2413e0 <_monitor_vecs-0xdbfc20>
 724:	4a78034b 	bmi	1e01458 <__bug_end+0xdfb4d4>
 728:	4a740336 	bmi	1d01408 <__bug_end+0xcfb484>
 72c:	89302c4e 	ldmdbhi	r0!, {r1, r2, r3, r6, sl, fp, sp}
 730:	e7034b4d 	str	r4, [r3, -sp, asr #22]
 734:	042f8203 	strteq	r8, [pc], #-515	; 73c <_monitor_vecs-0x10008c4>
 738:	7a9f0302 	bvc	fe7c1348 <__bug_end+0xfd7bb3c4>
 73c:	0301044a 	movweq	r0, #5194	; 0x144a
 740:	04ba05e3 	ldrteq	r0, [sl], #1507	; 0x5e3
 744:	7a9d0302 	bvc	fe741354 <__bug_end+0xfd73b3d0>
 748:	0301042e 	movweq	r0, #5166	; 0x142e
 74c:	302e05e3 	eorcc	r0, lr, r3, ror #11
 750:	0006022d 	andeq	r0, r6, sp, lsr #4
 754:	006a0101 	rsbeq	r0, sl, r1, lsl #2
 758:	00020000 	andeq	r0, r2, r0
 75c:	0000001f 	andeq	r0, r0, pc, lsl r0
 760:	0efb0102 	cdpeq	1, 15, cr0, cr11, cr2, {0}
 764:	0101000d 	tsteq	r1, sp
 768:	00000101 	andeq	r0, r0, r1, lsl #2
 76c:	00000100 	andeq	r0, r0, r0, lsl #2
 770:	72700001 	rsbsvc	r0, r0, #1
 774:	6b746e69 	blvs	1d1c120 <__bug_end+0xd1619c>
 778:	0000632e 	andeq	r6, r0, lr, lsr #6
 77c:	00000000 	andeq	r0, r0, r0
 780:	46300205 	ldrtmi	r0, [r0], -r5, lsl #4
 784:	09030100 	stmdbeq	r3, {r8}
 788:	67312e01 	ldrvs	r2, [r1, -r1, lsl #28]!
 78c:	2d2f872d 	stccs	7, cr8, [pc, #-180]!	; 6e0 <_monitor_vecs-0x1000920>
 790:	4e4b2d2f 	cdpmi	13, 4, cr2, cr11, cr15, {1}
 794:	2f67652f 	svccs	0x0067652f
 798:	2c30854b 	cfldr32cs	mvfx8, [r0], #-300	; 0xfffffed4
 79c:	49302c30 	ldmdbmi	r0!, {r4, r5, sl, fp, sp}
 7a0:	02003583 	andeq	r3, r0, #549453824	; 0x20c00000
 7a4:	2e060204 	cdpcs	2, 0, cr0, cr6, cr4, {0}
 7a8:	02040200 	andeq	r0, r4, #0
 7ac:	02002f06 	andeq	r2, r0, #24
 7b0:	00800204 	addeq	r0, r0, r4, lsl #4
 7b4:	30020402 	andcc	r0, r2, r2, lsl #8
 7b8:	02040200 	andeq	r0, r4, #0
 7bc:	024b332c 	subeq	r3, fp, #-1342177280	; 0xb0000000
 7c0:	01010006 	tsteq	r1, r6
 7c4:	00000067 	andeq	r0, r0, r7, rrx
 7c8:	002a0002 	eoreq	r0, sl, r2
 7cc:	01020000 	mrseq	r0, (UNDEF: 2)
 7d0:	000d0efb 	strdeq	r0, [sp], -fp
 7d4:	01010101 	tsteq	r1, r1, lsl #2
 7d8:	01000000 	mrseq	r0, (UNDEF: 0)
 7dc:	00010000 	andeq	r0, r1, r0
 7e0:	69727473 	ldmdbvs	r2!, {r0, r1, r4, r5, r6, sl, ip, sp, lr}^
 7e4:	632e676e 	teqvs	lr, #28835840	; 0x1b80000
 7e8:	00000000 	andeq	r0, r0, r0
 7ec:	65707974 	ldrbvs	r7, [r0, #-2420]!	; 0x974
 7f0:	00682e73 	rsbeq	r2, r8, r3, ror lr
 7f4:	00000000 	andeq	r0, r0, r0
 7f8:	18020500 	stmdane	r2, {r8, sl}
 7fc:	03010047 	movweq	r0, #4167	; 0x1047
 800:	64150109 	ldrvs	r0, [r5], #-265	; 0x109
 804:	4d6a2d31 	stclmi	13, cr2, [sl, #-196]!	; 0xffffff3c
 808:	2d322b15 	fldmdbxcs	r2!, {d2-d11}	;@ Deprecated
 80c:	b6302f32 	shasxlt	r2, r0, r2
 810:	2f4a0903 	svccs	0x004a0903
 814:	4b67134d 	blmi	19c5550 <__bug_end+0x9bf5cc>
 818:	6713a183 	ldrvs	sl, [r3, -r3, lsl #3]
 81c:	2f81312b 	svccs	0x0081312b
 820:	31676c2d 	cmncc	r7, sp, lsr #24
 824:	4b322a16 	blmi	c8b084 <_monitor_vecs-0x375f7c>
 828:	02026a65 	andeq	r6, r2, #413696	; 0x65000
 82c:	Address 0x000000000000082c is out of bounds.


Disassembly of section .debug_info:

00000000 <.debug_info>:
       0:	00000056 	andeq	r0, r0, r6, asr r0
       4:	00000002 	andeq	r0, r0, r2
       8:	01040000 	mrseq	r0, (UNDEF: 4)
	...
      14:	72746e65 	rsbsvc	r6, r4, #1616	; 0x650
      18:	00532e79 	subseq	r2, r3, r9, ror lr
      1c:	6d6f682f 	stclvs	8, cr6, [pc, #-188]!	; ffffff68 <__bug_end+0xfeff9fe4>
      20:	73752f65 	cmnvc	r5, #404	; 0x194
      24:	442f7265 	strtmi	r7, [pc], #-613	; 2c <_monitor_vecs-0x1000fd4>
      28:	62706f72 	rsbsvs	r6, r0, #456	; 0x1c8
      2c:	672f786f 	strvs	r7, [pc, -pc, ror #16]!
      30:	75687469 	strbvc	r7, [r8, #-1129]!	; 0x469
      34:	61522f62 	cmpvs	r2, r2, ror #30
      38:	65627073 	strbvs	r7, [r2, #-115]!	; 0x73
      3c:	50797272 	rsbspl	r7, r9, r2, ror r2
      40:	70722f69 	rsbsvc	r2, r2, r9, ror #30
      44:	64672d69 	strbtvs	r2, [r7], #-3433	; 0xd69
      48:	4e470062 	cdpmi	0, 4, cr0, cr7, cr2, {3}
      4c:	53412055 	movtpl	r2, #4181	; 0x1055
      50:	322e3220 	eorcc	r3, lr, #2
      54:	00302e31 	eorseq	r2, r0, r1, lsr lr
      58:	07bd8001 	ldreq	r8, [sp, r1]!
      5c:	00020000 	andeq	r0, r2, r0
      60:	00000012 	andeq	r0, r0, r2, lsl r0
      64:	002d0104 	eoreq	r0, sp, r4, lsl #2
      68:	18010000 	stmdane	r1, {}	; <UNPREDICTABLE>
      6c:	39000000 	stmdbcc	r0, {}	; <UNPREDICTABLE>
      70:	fc000000 	stc2	0, cr0, [r0], {0}
      74:	f4010033 	vst4.8	{d0-d3}, [r1 :256], r3
      78:	62010036 	andvs	r0, r1, #54	; 0x36
      7c:	02000000 	andeq	r0, r0, #0
      80:	000000ca 	andeq	r0, r0, sl, asr #1
      84:	680a0304 	stmdavs	sl, {r2, r8, r9}
      88:	03000000 	movweq	r0, #0
      8c:	00000131 	andeq	r0, r0, r1, lsr r1
      90:	00b10300 	adcseq	r0, r1, r0, lsl #6
      94:	03010000 	movweq	r0, #4096	; 0x1000
      98:	000001ac 	andeq	r0, r0, ip, lsr #3
      9c:	01a70302 			; <UNDEFINED> instruction: 0x01a70302
      a0:	03030000 	movweq	r0, #12288	; 0x3000
      a4:	00000193 	muleq	r0, r3, r1
      a8:	01980304 	orrseq	r0, r8, r4, lsl #6
      ac:	03050000 	movweq	r0, #20480	; 0x5000
      b0:	0000019d 	muleq	r0, sp, r1
      b4:	01a20306 			; <UNDEFINED> instruction: 0x01a20306
      b8:	03070000 	movweq	r0, #28672	; 0x7000
      bc:	000000e9 	andeq	r0, r0, r9, ror #1
      c0:	68020007 	stmdavs	r2, {r0, r1, r2}
      c4:	04000001 	streq	r0, [r0], #-1
      c8:	00871603 	addeq	r1, r7, r3, lsl #12
      cc:	c4030000 	strgt	r0, [r3]
      d0:	00000001 	andeq	r0, r0, r1
      d4:	0001bb03 	andeq	fp, r1, r3, lsl #22
      d8:	11030100 	mrsne	r0, (UNDEF: 19)
      dc:	02000000 	andeq	r0, r0, #0
      e0:	01830400 	orreq	r0, r3, r0, lsl #8
      e4:	030c0000 	movweq	r0, #49152	; 0xc000
      e8:	0000be1c 	andeq	fp, r0, ip, lsl lr
      ec:	69700500 	ldmdbvs	r0!, {r8, sl}^
      f0:	1d03006e 	stcne	0, cr0, [r3, #-440]	; 0xfffffe48
      f4:	000000be 	strheq	r0, [r0], -lr
      f8:	05002302 	streq	r2, [r0, #-770]	; 0x302
      fc:	00647570 	rsbeq	r7, r4, r0, ror r5
     100:	00681e03 	rsbeq	r1, r8, r3, lsl #28
     104:	23020000 	movwcs	r0, #8192	; 0x2000
     108:	00cf0604 	sbceq	r0, pc, r4, lsl #12
     10c:	1f030000 	svcne	0x00030000
     110:	00000025 	andeq	r0, r0, r5, lsr #32
     114:	00082302 	andeq	r2, r8, r2, lsl #6
     118:	69050407 	stmdbvs	r5, {r0, r1, r2, sl}
     11c:	0400746e 	streq	r7, [r0], #-1134	; 0x46e
     120:	00000007 	andeq	r0, r0, r7
     124:	0a040410 	beq	10116c <_monitor_vecs-0xeffe94>
     128:	06000001 	streq	r0, [r0], -r1
     12c:	00000128 	andeq	r0, r0, r8, lsr #2
     130:	010a0504 	tsteq	sl, r4, lsl #10
     134:	23020000 	movwcs	r0, #8192	; 0x2000
     138:	01500600 	cmpeq	r0, r0, lsl #12
     13c:	06040000 	streq	r0, [r4], -r0
     140:	0000011c 	andeq	r0, r0, ip, lsl r1
     144:	06042302 	streq	r2, [r4], -r2, lsl #6
     148:	00000597 	muleq	r0, r7, r5
     14c:	01230704 	teqeq	r3, r4, lsl #14
     150:	23020000 	movwcs	r0, #8192	; 0x2000
     154:	736d0508 	cmnvc	sp, #33554432	; 0x2000000
     158:	08040067 	stmdaeq	r4, {r0, r1, r2, r5, r6}
     15c:	0000010a 	andeq	r0, r0, sl, lsl #2
     160:	000c2302 	andeq	r2, ip, r2, lsl #6
     164:	01100408 	tsteq	r0, r8, lsl #8
     168:	15090000 	strne	r0, [r9]
     16c:	0a000001 	beq	178 <_monitor_vecs-0x1000e88>
     170:	01230801 	teqeq	r3, r1, lsl #16
     174:	040a0000 	streq	r0, [sl]
     178:	0000a407 	andeq	sl, r0, r7, lsl #8
     17c:	07040a00 	streq	r0, [r4, -r0, lsl #20]
     180:	0000009f 	muleq	r0, pc, r0	; <UNPREDICTABLE>
     184:	0905040b 	stmdbeq	r5, {r0, r1, r3, sl}
     188:	0000018c 	andeq	r0, r0, ip, lsl #3
     18c:	0030520c 	eorseq	r5, r0, ip, lsl #4
     190:	31520c00 	cmpcc	r2, r0, lsl #24
     194:	520c0100 	andpl	r0, ip, #0
     198:	0c020032 	stceq	0, cr0, [r2], {50}	; 0x32
     19c:	03003352 	movweq	r3, #850	; 0x352
     1a0:	0034520c 	eorseq	r5, r4, ip, lsl #4
     1a4:	35520c04 	ldrbcc	r0, [r2, #-3076]	; 0xc04
     1a8:	520c0500 	andpl	r0, ip, #0
     1ac:	0c060036 	stceq	0, cr0, [r6], {54}	; 0x36
     1b0:	07003752 	smlsdeq	r0, r2, r7, r3
     1b4:	0038520c 	eorseq	r5, r8, ip, lsl #4
     1b8:	39520c08 	ldmdbcc	r2, {r3, sl, fp}^
     1bc:	520c0900 	andpl	r0, ip, #0
     1c0:	0a003031 	beq	c28c <_monitor_vecs-0xff4d74>
     1c4:	3131520c 	teqcc	r1, ip, lsl #4
     1c8:	520c0b00 	andpl	r0, ip, #0
     1cc:	0c003231 	sfmeq	f3, 4, [r0], {49}	; 0x31
     1d0:	0050530c 	subseq	r5, r0, ip, lsl #6
     1d4:	524c0c0d 	subpl	r0, ip, #3328	; 0xd00
     1d8:	500c0e00 	andpl	r0, ip, r0, lsl #28
     1dc:	030f0043 	movweq	r0, #61507	; 0xf043
     1e0:	0000018e 	andeq	r0, r0, lr, lsl #3
     1e4:	7a040010 	bvc	10022c <_monitor_vecs-0xf00dd4>
     1e8:	44000001 	strmi	r0, [r0], #-1
     1ec:	01a50f05 			; <UNDEFINED> instruction: 0x01a50f05
     1f0:	72050000 	andvc	r0, r5, #0
     1f4:	a5100500 	ldrge	r0, [r0, #-1280]	; 0x500
     1f8:	02000001 	andeq	r0, r0, #1
     1fc:	0d000023 	stceq	0, cr0, [r0, #-140]	; 0xffffff74
     200:	00000123 	andeq	r0, r0, r3, lsr #2
     204:	000001b5 			; <UNDEFINED> instruction: 0x000001b5
     208:	00011c0e 	andeq	r1, r1, lr, lsl #24
     20c:	0a001000 	beq	4214 <_monitor_vecs-0xffcdec>
     210:	00c10504 	sbceq	r0, r1, r4, lsl #10
     214:	010a0000 	mrseq	r0, (UNDEF: 10)
     218:	00011a08 	andeq	r1, r1, r8, lsl #20
     21c:	07020a00 	streq	r0, [r2, -r0, lsl #20]
     220:	00000067 	andeq	r0, r0, r7, rrx
     224:	0000890f 	andeq	r8, r0, pc, lsl #18
     228:	010b0200 	mrseq	r0, R11_fiq
     22c:	0001ec03 	andeq	lr, r1, r3, lsl #24
     230:	05971000 	ldreq	r1, [r7]
     234:	0b020000 	bleq	8023c <_monitor_vecs-0xf80dc4>
     238:	00000123 	andeq	r0, r0, r3, lsr #2
     23c:	02007611 	andeq	r7, r0, #17825792	; 0x1100000
     240:	0001230b 	andeq	r2, r1, fp, lsl #6
     244:	7a0f0000 	bvc	3c024c <_monitor_vecs-0xc40db4>
     248:	01000000 	mrseq	r0, (UNDEF: 0)
     24c:	03030115 	movweq	r0, #12565	; 0x3115
     250:	11000002 	tstne	r0, r2
     254:	1501006e 	strne	r0, [r1, #-110]	; 0x6e
     258:	00000123 	andeq	r0, r0, r3, lsr #2
     25c:	00991200 	addseq	r1, r9, r0, lsl #4
     260:	10020000 	andne	r0, r2, r0
     264:	00012301 	andeq	r2, r1, r1, lsl #6
     268:	02200300 	eoreq	r0, r0, #0
     26c:	97100000 	ldrls	r0, [r0, -r0]
     270:	02000005 	andeq	r0, r0, #5
     274:	00012310 	andeq	r2, r1, r0, lsl r3
     278:	830f0000 	movwhi	r0, #61440	; 0xf000
     27c:	01000001 	tsteq	r0, r1
     280:	4401011c 	strmi	r0, [r1], #-284	; 0x11c
     284:	13000002 	movwne	r0, #2
     288:	00676663 	rsbeq	r6, r7, r3, ror #12
     28c:	02441e01 	subeq	r1, r4, #16
     290:	65130000 	ldrvs	r0, [r3]
     294:	01007272 	tsteq	r0, r2, ror r2
     298:	0000be23 	andeq	fp, r0, r3, lsr #28
     29c:	870d0000 	strhi	r0, [sp, -r0]
     2a0:	54000000 	strpl	r0, [r0]
     2a4:	0e000002 	cdpeq	0, 0, cr0, cr0, cr2, {0}
     2a8:	0000011c 	andeq	r0, r0, ip, lsl r1
     2ac:	b8120002 	ldmdalt	r2, {r1}
     2b0:	01000000 	mrseq	r0, (UNDEF: 0)
     2b4:	02940176 	addseq	r0, r4, #-2147483619	; 0x8000001d
     2b8:	94010000 	strls	r0, [r1]
     2bc:	10000002 	andne	r0, r0, r2
     2c0:	00000597 	muleq	r0, r7, r5
     2c4:	01237601 	teqeq	r3, r1, lsl #12
     2c8:	55140000 	ldrpl	r0, [r4]
     2cc:	01000001 	tsteq	r0, r1
     2d0:	00029a78 	andeq	r9, r2, r8, ror sl
     2d4:	14010100 	strne	r0, [r1], #-256	; 0x100
     2d8:	000001cc 	andeq	r0, r0, ip, asr #3
     2dc:	029a7801 	addseq	r7, sl, #65536	; 0x10000
     2e0:	01010000 	mrseq	r0, (UNDEF: 1)
     2e4:	01006213 	tsteq	r0, r3, lsl r2
     2e8:	00029479 	andeq	r9, r2, r9, ror r4
     2ec:	04080000 	streq	r0, [r8]
     2f0:	0000029a 	muleq	r0, sl, r2
     2f4:	0000c509 	andeq	ip, r0, r9, lsl #10
     2f8:	01710f00 	cmneq	r1, r0, lsl #30
     2fc:	82010000 	andhi	r0, r1, #0
     300:	02c10101 	sbceq	r0, r1, #1073741824	; 0x40000000
     304:	62110000 	andsvs	r0, r1, #0
     308:	94820100 	strls	r0, [r2], #256	; 0x100
     30c:	10000002 	andne	r0, r0, r2
     310:	00000552 	andeq	r0, r0, r2, asr r5
     314:	02c18301 	sbceq	r8, r1, #67108864	; 0x4000000
     318:	08000000 	stmdaeq	r0, {}	; <UNPREDICTABLE>
     31c:	00018c04 	andeq	r8, r1, r4, lsl #24
     320:	01ee0f00 	mvneq	r0, r0, lsl #30
     324:	8f010000 	svchi	0x00010000
     328:	02e90101 	rsceq	r0, r9, #1073741824	; 0x40000000
     32c:	52100000 	andspl	r0, r0, #0
     330:	01000005 	tsteq	r0, r5
     334:	0002c18f 	andeq	ip, r2, pc, lsl #3
     338:	00621300 	rsbeq	r1, r2, r0, lsl #6
     33c:	02949101 	addseq	r9, r4, #1073741824	; 0x40000000
     340:	15000000 	strne	r0, [r0]
     344:	00044a01 	andeq	r4, r4, r1, lsl #20
     348:	01710100 	cmneq	r1, r0, lsl #2
     34c:	01e01601 	mvneq	r1, r1, lsl #12
     350:	27010000 	strcs	r0, [r1, -r0]
     354:	b10f0101 	tstlt	pc, r1, lsl #2
     358:	01000001 	tsteq	r0, r1
     35c:	1401012d 	strne	r0, [r1], #-301	; 0x12d
     360:	13000003 	movwne	r0, #3
     364:	01006172 	tsteq	r0, r2, ror r1
     368:	0000be2f 	andeq	fp, r0, pc, lsr #28
     36c:	11170000 	tstne	r7, r0
     370:	01000001 	tsteq	r0, r1
     374:	33fc0153 	mvnscc	r0, #-1073741804	; 0xc0000014
     378:	34280100 	strtcc	r0, [r8], #-256	; 0x100
     37c:	7d020100 	stfvcs	f0, [r2]
     380:	00035300 	andeq	r5, r3, r0, lsl #6
     384:	01371400 	teqeq	r7, r0, lsl #8
     388:	55010000 	strpl	r0, [r1]
     38c:	00000115 	andeq	r0, r0, r5, lsl r1
     390:	d6140101 	ldrle	r0, [r4], -r1, lsl #2
     394:	01000001 	tsteq	r0, r1
     398:	00011555 	andeq	r1, r1, r5, asr r5
     39c:	18010100 	stmdane	r1, {r8}
     3a0:	56010070 			; <UNDEFINED> instruction: 0x56010070
     3a4:	00000353 	andeq	r0, r0, r3, asr r3
     3a8:	00000000 	andeq	r0, r0, r0
     3ac:	15040800 	strne	r0, [r4, #-2048]	; 0x800
     3b0:	19000001 	stmdbne	r0, {r0}
     3b4:	0000d801 	andeq	sp, r0, r1, lsl #16
     3b8:	015c0100 	cmpeq	ip, r0, lsl #2
     3bc:	01003428 	tsteq	r0, r8, lsr #8
     3c0:	010034c0 	smlabteq	r0, r0, r4, r3
     3c4:	00000013 	andeq	r0, r0, r3, lsl r0
     3c8:	0000039e 	muleq	r0, lr, r3
     3cc:	0005521a 	andeq	r5, r5, sl, lsl r2
     3d0:	c15c0100 	cmpgt	ip, r0, lsl #2
     3d4:	40000002 	andmi	r0, r0, r2
     3d8:	18000000 	stmdane	r0, {}	; <UNPREDICTABLE>
     3dc:	5e010069 	cdppl	0, 0, cr0, cr1, cr9, {3}
     3e0:	000000be 	strheq	r0, [r0], -lr
     3e4:	0000005e 	andeq	r0, r0, lr, asr r0
     3e8:	0000f11b 	andeq	pc, r0, fp, lsl r1	; <UNPREDICTABLE>
     3ec:	ae5f0100 	rdfgee	f0, f7, f0
     3f0:	03000003 	movweq	r0, #3
     3f4:	007fb091 			; <UNDEFINED> instruction: 0x007fb091
     3f8:	00010a0d 	andeq	r0, r1, sp, lsl #20
     3fc:	0003ae00 	andeq	sl, r3, r0, lsl #28
     400:	011c0e00 	tsteq	ip, r0, lsl #28
     404:	000f0000 	andeq	r0, pc, r0
     408:	00039e09 	andeq	r9, r3, r9, lsl #28
     40c:	02e91c00 	rsceq	r1, r9, #0
     410:	34c00000 	strbcc	r0, [r0]
     414:	34c80100 	strbcc	r0, [r8], #256	; 0x100
     418:	7d020100 	stfvcs	f0, [r2]
     41c:	90011900 	andls	r1, r1, r0, lsl #18
     420:	01000000 	mrseq	r0, (UNDEF: 0)
     424:	34c8019c 	strbcc	r0, [r8], #412	; 0x19c
     428:	358c0100 	strcc	r0, [ip, #256]	; 0x100
     42c:	00720100 	rsbseq	r0, r2, r0, lsl #2
     430:	04790000 	ldrbteq	r0, [r9]
     434:	521a0000 	andspl	r0, sl, #0
     438:	01000005 	tsteq	r0, r5
     43c:	0002c19c 	muleq	r2, ip, r1
     440:	00009200 	andeq	r9, r0, r0, lsl #4
     444:	02c71d00 	sbceq	r1, r7, #0
     448:	34cc0000 	strbcc	r0, [ip]
     44c:	00200100 	eoreq	r0, r0, r0, lsl #2
     450:	9e010000 	cdpls	0, 0, cr0, cr1, cr0, {0}
     454:	00000469 	andeq	r0, r0, r9, ror #8
     458:	0002d41e 	andeq	sp, r2, lr, lsl r4
     45c:	0000b000 	andeq	fp, r0, r0
     460:	00401f00 	subeq	r1, r0, r0, lsl #30
     464:	df200000 	svcle	0x00200000
     468:	1d000002 	stcne	0, cr0, [r0, #-8]
     46c:	00000254 	andeq	r0, r0, r4, asr r2
     470:	010034cc 	smlabteq	r0, ip, r4, r3
     474:	00000060 	andeq	r0, r0, r0, rrx
     478:	04499101 	strbeq	r9, [r9], #-257	; 0x101
     47c:	651e0000 	ldrvs	r0, [lr]
     480:	ce000002 	cdpgt	0, 0, cr0, cr0, cr2, {0}
     484:	1f000000 	svcne	0x00000000
     488:	00000080 	andeq	r0, r0, r0, lsl #1
     48c:	00027021 	andeq	r7, r2, r1, lsr #32
     490:	7d210100 	stfvcs	f0, [r1]
     494:	01000002 	tsteq	r0, r2
     498:	00028a22 	andeq	r8, r2, r2, lsr #20
     49c:	0000f900 	andeq	pc, r0, r0, lsl #18
     4a0:	23000000 	movwcs	r0, #0
     4a4:	0000029f 	muleq	r0, pc, r2	; <UNPREDICTABLE>
     4a8:	01003530 	tsteq	r0, r0, lsr r5
     4ac:	0100358c 	smlabbeq	r0, ip, r5, r3
     4b0:	b5249601 	strlt	r9, [r4, #-1537]!	; 0x601
     4b4:	01000002 	tsteq	r0, r2
     4b8:	02ac2455 	adceq	r2, ip, #1426063360	; 0x55000000
     4bc:	54010000 	strpl	r0, [r1]
     4c0:	25000000 	strcs	r0, [r0]
     4c4:	000002e9 	andeq	r0, r0, r9, ror #5
     4c8:	01003514 	tsteq	r0, r4, lsl r5
     4cc:	01003518 	tsteq	r0, r8, lsl r5
     4d0:	2600a001 	strcs	sl, [r0], -r1
     4d4:	0000fb01 	andeq	pc, r0, r1, lsl #22
     4d8:	01a50100 			; <UNDEFINED> instruction: 0x01a50100
     4dc:	0100358c 	smlabbeq	r0, ip, r5, r3
     4e0:	010035a0 	smlatbeq	r0, r0, r5, r3
     4e4:	9f007d02 	svcls	0x00007d02
     4e8:	27000004 	strcs	r0, [r0, -r4]
     4ec:	00000552 	andeq	r0, r0, r2, asr r5
     4f0:	02c1a501 	sbceq	sl, r1, #4194304	; 0x400000
     4f4:	50010000 	andpl	r0, r1, r0
     4f8:	07012600 	streq	r2, [r1, -r0, lsl #12]
     4fc:	01000001 	tsteq	r0, r1
     500:	35a001ac 	strcc	r0, [r0, #428]!	; 0x1ac
     504:	35b40100 	ldrcc	r0, [r4, #256]!	; 0x100
     508:	7d020100 	stfvcs	f0, [r2]
     50c:	0004c500 	andeq	ip, r4, r0, lsl #10
     510:	05522700 	ldrbeq	r2, [r2, #-1792]	; 0x700
     514:	ac010000 	stcge	0, cr0, [r1], {0}
     518:	000002c1 	andeq	r0, r0, r1, asr #5
     51c:	26005001 	strcs	r5, [r0], -r1
     520:	00002101 	andeq	r2, r0, r1, lsl #2
     524:	01b30100 			; <UNDEFINED> instruction: 0x01b30100
     528:	010035b4 			; <UNDEFINED> instruction: 0x010035b4
     52c:	010035c8 	smlabteq	r0, r8, r5, r3
     530:	eb007d02 	bl	1f940 <_monitor_vecs-0xfe16c0>
     534:	27000004 	strcs	r0, [r0, -r4]
     538:	00000552 	andeq	r0, r0, r2, asr r5
     53c:	02c1b301 	sbceq	fp, r1, #67108864	; 0x4000000
     540:	50010000 	andpl	r0, r1, r0
     544:	00011900 	andeq	r1, r1, r0, lsl #18
     548:	01000000 	mrseq	r0, (UNDEF: 0)
     54c:	35c801ba 	strbcc	r0, [r8, #442]	; 0x1ba
     550:	35ec0100 	strbcc	r0, [ip, #256]!	; 0x100
     554:	01220100 	teqeq	r2, r0, lsl #2
     558:	05140000 	ldreq	r0, [r4]
     55c:	521a0000 	andspl	r0, sl, #0
     560:	01000005 	tsteq	r0, r5
     564:	0002c1ba 			; <UNDEFINED> instruction: 0x0002c1ba
     568:	00014200 	andeq	r4, r1, r0, lsl #4
     56c:	01260000 	teqeq	r6, r0
     570:	000000e2 	andeq	r0, r0, r2, ror #1
     574:	ec01c101 	stfd	f4, [r1], {1}
     578:	f8010035 			; <UNDEFINED> instruction: 0xf8010035
     57c:	02010035 	andeq	r0, r1, #53	; 0x35
     580:	053c007d 	ldreq	r0, [ip, #-125]!	; 0x7d
     584:	521a0000 	andspl	r0, sl, #0
     588:	01000005 	tsteq	r0, r5
     58c:	0002c1c1 	andeq	ip, r2, r1, asr #3
     590:	00016000 	andeq	r6, r1, r0
     594:	01260000 	teqeq	r6, r0
     598:	00000161 	andeq	r0, r0, r1, ror #2
     59c:	f801c601 			; <UNDEFINED> instruction: 0xf801c601
     5a0:	04010035 	streq	r0, [r1], #-53	; 0x35
     5a4:	02010036 	andeq	r0, r1, #54	; 0x36
     5a8:	0564007d 	strbeq	r0, [r4, #-125]!	; 0x7d
     5ac:	521a0000 	andspl	r0, sl, #0
     5b0:	01000005 	tsteq	r0, r5
     5b4:	0002c1c6 	andeq	ip, r2, r6, asr #3
     5b8:	00017300 	andeq	r7, r1, r0, lsl #6
     5bc:	01190000 	tsteq	r9, r0
     5c0:	00000143 	andeq	r0, r0, r3, asr #2
     5c4:	0401cd01 	streq	ip, [r1], #-3329	; 0xd01
     5c8:	f4010036 	vst4.8	{d0-d3}, [r1 :256], r6
     5cc:	86010036 			; <UNDEFINED> instruction: 0x86010036
     5d0:	8c000001 	stchi	0, cr0, [r0], {1}
     5d4:	28000007 	stmdacs	r0, {r0, r1, r2}
     5d8:	000002f3 	strdeq	r0, [r0], -r3
     5dc:	0100360c 	tsteq	r0, ip, lsl #12
     5e0:	01003648 	tsteq	r0, r8, asr #12
     5e4:	05bacf01 	ldreq	ip, [sl, #3841]!	; 0xf01
     5e8:	20230000 	eorcs	r0, r3, r0
     5ec:	10000002 	andne	r0, r0, r2
     5f0:	48010036 	stmdami	r1, {r1, r2, r4, r5}
     5f4:	01010036 	tsteq	r1, r6, lsr r0
     5f8:	3610292a 	ldrcc	r2, [r0], -sl, lsr #18
     5fc:	36480100 	strbcc	r0, [r8], -r0, lsl #2
     600:	2d2a0100 	stfcss	f0, [sl]
     604:	02000002 	andeq	r0, r0, #2
     608:	382a5491 	stmdacc	sl!, {r0, r4, r7, sl, ip, lr}
     60c:	01000002 	tsteq	r0, r2
     610:	00000050 	andeq	r0, r0, r0, asr r0
     614:	0002fc28 	andeq	pc, r2, r8, lsr #24
     618:	00364c00 	eorseq	r4, r6, r0, lsl #24
     61c:	0036b401 	eorseq	fp, r6, r1, lsl #8
     620:	09d10101 	ldmibeq	r1, {r0, r8}^
     624:	29000007 	stmdbcs	r0, {r0, r1, r2}
     628:	0100364c 	tsteq	r0, ip, asr #12
     62c:	010036b4 			; <UNDEFINED> instruction: 0x010036b4
     630:	00030922 	andeq	r0, r3, r2, lsr #18
     634:	0001b200 	andeq	fp, r1, r0, lsl #4
     638:	01ca1d00 	biceq	r1, sl, r0, lsl #26
     63c:	364c0000 	strbcc	r0, [ip], -r0
     640:	00a00100 	adceq	r0, r0, r0, lsl #2
     644:	32010000 	andcc	r0, r1, #0
     648:	00000602 	andeq	r0, r0, r2, lsl #12
     64c:	0001e22b 	andeq	lr, r1, fp, lsr #4
     650:	d72c0000 	strle	r0, [ip, -r0]!
     654:	94000001 	strls	r0, [r0], #-1
     658:	00202000 	eoreq	r2, r0, r0
     65c:	0001ec1d 	andeq	lr, r1, sp, lsl ip
     660:	00365400 	eorseq	r5, r6, r0, lsl #8
     664:	0000b801 	andeq	fp, r0, r1, lsl #16
     668:	1f350100 	svcne	0x00350100
     66c:	1e000006 	cdpne	0, 0, cr0, cr0, cr6, {0}
     670:	000001f9 	strdeq	r0, [r0], -r9
     674:	00000264 	andeq	r0, r0, r4, ror #4
     678:	01ca2800 	biceq	r2, sl, r0, lsl #16
     67c:	36680000 	strbtcc	r0, [r8], -r0
     680:	36700100 	ldrbtcc	r0, [r0], -r0, lsl #2
     684:	38010100 	stmdacc	r1, {r8}
     688:	00000645 	andeq	r0, r0, r5, asr #12
     68c:	0001e22c 	andeq	lr, r1, ip, lsr #4
     690:	40001000 	andmi	r1, r0, r0
     694:	01d72c0b 	bicseq	r2, r7, fp, lsl #24
     698:	00980000 	addseq	r0, r8, r0
     69c:	28002020 	stmdacs	r0, {r5, sp}
     6a0:	000001ec 	andeq	r0, r0, ip, ror #3
     6a4:	01003670 	tsteq	r0, r0, ror r6
     6a8:	01003678 	tsteq	r0, r8, ror r6
     6ac:	06623b01 	strbteq	r3, [r2], -r1, lsl #22
     6b0:	f91e0000 			; <UNDEFINED> instruction: 0xf91e0000
     6b4:	79000001 	stmdbvc	r0, {r0}
     6b8:	00000002 	andeq	r0, r0, r2
     6bc:	0001ca28 	andeq	ip, r1, r8, lsr #20
     6c0:	00367800 	eorseq	r7, r6, r0, lsl #16
     6c4:	00367c01 	eorseq	r7, r6, r1, lsl #24
     6c8:	853e0101 	ldrhi	r0, [lr, #-257]!	; 0x101
     6cc:	2b000006 	blcs	6ec <_monitor_vecs-0x1000914>
     6d0:	000001e2 	andeq	r0, r0, r2, ror #3
     6d4:	01d72c00 	bicseq	r2, r7, r0, lsl #24
     6d8:	00980000 	addseq	r0, r8, r0
     6dc:	28002020 	stmdacs	r0, {r5, sp}
     6e0:	00000203 	andeq	r0, r0, r3, lsl #4
     6e4:	0100367c 	tsteq	r0, ip, ror r6
     6e8:	01003680 	smlabbeq	r0, r0, r6, r3
     6ec:	06a24101 	strteq	r4, [r2], r1, lsl #2
     6f0:	142c0000 	strtne	r0, [ip]
     6f4:	00000002 	andeq	r0, r0, r2
     6f8:	00202000 	eoreq	r2, r0, r0
     6fc:	0001ca28 	andeq	ip, r1, r8, lsr #20
     700:	00368800 	eorseq	r8, r6, r0, lsl #16
     704:	00368c01 	eorseq	r8, r6, r1, lsl #24
     708:	c8440101 	stmdagt	r4, {r0, r8}^
     70c:	1e000006 	cdpne	0, 0, cr0, cr0, cr6, {0}
     710:	000001e2 	andeq	r0, r0, r2, ror #3
     714:	0000028e 	andeq	r0, r0, lr, lsl #5
     718:	0001d72c 	andeq	sp, r1, ip, lsr #14
     71c:	20000000 	andcs	r0, r0, r0
     720:	03280020 	teqeq	r8, #32
     724:	8c000002 	stchi	0, cr0, [r0], {2}
     728:	90010036 	andls	r0, r1, r6, lsr r0
     72c:	01010036 	tsteq	r1, r6, lsr r0
     730:	0006e546 	andeq	lr, r6, r6, asr #10
     734:	02142c00 	andseq	r2, r4, #0
     738:	00080000 	andeq	r0, r8, r0
     73c:	23002020 	movwcs	r2, #32
     740:	000001ca 	andeq	r0, r0, sl, asr #3
     744:	010036b0 			; <UNDEFINED> instruction: 0x010036b0
     748:	010036b4 			; <UNDEFINED> instruction: 0x010036b4
     74c:	e21e4f01 	ands	r4, lr, #4
     750:	ad000001 	stcge	0, cr0, [r0, #-4]
     754:	2c000002 	stccs	0, cr0, [r0], {2}
     758:	000001d7 	ldrdeq	r0, [r0], -r7
     75c:	20200008 	eorcs	r0, r0, r8
     760:	1d000000 	stcne	0, cr0, [r0]
     764:	000001ec 	andeq	r0, r0, ip, ror #3
     768:	010036b8 			; <UNDEFINED> instruction: 0x010036b8
     76c:	000000d0 	ldrdeq	r0, [r0], -r0	; <UNPREDICTABLE>
     770:	0726d601 	streq	sp, [r6, -r1, lsl #12]!
     774:	f91e0000 			; <UNDEFINED> instruction: 0xf91e0000
     778:	cc000001 	stcgt	0, cr0, [r0], {1}
     77c:	00000002 	andeq	r0, r0, r2
     780:	0001ca28 	andeq	ip, r1, r8, lsr #20
     784:	0036bc00 	eorseq	fp, r6, r0, lsl #24
     788:	0036c401 	eorseq	ip, r6, r1, lsl #8
     78c:	4cd50101 	ldfmie	f0, [r5], {1}
     790:	2c000007 	stccs	0, cr0, [r0], {7}
     794:	000001e2 	andeq	r0, r0, r2, ror #3
     798:	00010000 	andeq	r0, r1, r0
     79c:	0001d72c 	andeq	sp, r1, ip, lsr #14
     7a0:	20001c00 	andcs	r1, r0, r0, lsl #24
     7a4:	ca280020 	bgt	a0082c <_monitor_vecs-0x6007d4>
     7a8:	d0000001 	andle	r0, r0, r1
     7ac:	d4010036 	strle	r0, [r1], #-54	; 0x36
     7b0:	01010036 	tsteq	r1, r6, lsr r0
     7b4:	000772d7 	ldrdeq	r7, [r7], -r7	; <UNPREDICTABLE>
     7b8:	01e22c00 	mvneq	r2, r0, lsl #24
     7bc:	00000000 	andeq	r0, r0, r0
     7c0:	d72c0001 	strle	r0, [ip, -r1]!
     7c4:	28000001 	stmdacs	r0, {r0}
     7c8:	00202000 	eoreq	r2, r0, r0
     7cc:	0001ec23 	andeq	lr, r1, r3, lsr #24
     7d0:	0036d400 	eorseq	sp, r6, r0, lsl #8
     7d4:	0036f401 	eorseq	pc, r6, r1, lsl #8
     7d8:	1ed80101 	cdpne	1, 13, cr0, cr8, cr1, {0}
     7dc:	000001f9 	strdeq	r0, [r0], -r9
     7e0:	000002e4 	andeq	r0, r0, r4, ror #5
     7e4:	37140000 	ldrcc	r0, [r4, -r0]
     7e8:	01000001 	tsteq	r0, r1
     7ec:	00011555 	andeq	r1, r1, r5, asr r5
     7f0:	14010100 	strne	r0, [r1], #-256	; 0x100
     7f4:	000001d6 	ldrdeq	r0, [r0], -r6
     7f8:	01155501 	tsteq	r5, r1, lsl #10
     7fc:	01010000 	mrseq	r0, (UNDEF: 1)
     800:	00015514 	andeq	r5, r1, r4, lsl r5
     804:	9a780100 	bls	1e00c0c <__bug_end+0xdfac88>
     808:	01000002 	tsteq	r0, r2
     80c:	01cc1401 	biceq	r1, ip, r1, lsl #8
     810:	78010000 	stmdavc	r1, {}	; <UNPREDICTABLE>
     814:	0000029a 	muleq	r0, sl, r2
     818:	19000101 	stmdbne	r0, {r0, r8}
     81c:	02000003 	andeq	r0, r0, #3
     820:	00025700 	andeq	r5, r2, r0, lsl #14
     824:	2d010400 	cfstrscs	mvf0, [r1]
     828:	01000000 	mrseq	r0, (UNDEF: 0)
     82c:	000001fa 	strdeq	r0, [r0], -sl
     830:	00000039 	andeq	r0, r0, r9, lsr r0
     834:	010036f4 	strdeq	r3, [r0, -r4]
     838:	010037f4 	strdeq	r3, [r0, -r4]
     83c:	000001c0 	andeq	r0, r0, r0, asr #3
     840:	00009902 	andeq	r9, r0, r2, lsl #18
     844:	01100200 	tsteq	r0, r0, lsl #4
     848:	00000042 	andeq	r0, r0, r2, asr #32
     84c:	00004203 	andeq	r4, r0, r3, lsl #4
     850:	05970300 	ldreq	r0, [r7, #768]	; 0x300
     854:	10020000 	andne	r0, r2, r0
     858:	00000042 	andeq	r0, r0, r2, asr #32
     85c:	07040400 	streq	r0, [r4, -r0, lsl #8]
     860:	0000009f 	muleq	r0, pc, r0	; <UNPREDICTABLE>
     864:	00008905 	andeq	r8, r0, r5, lsl #18
     868:	010b0200 	mrseq	r0, R11_fiq
     86c:	00006b03 	andeq	r6, r0, r3, lsl #22
     870:	05970300 	ldreq	r0, [r7, #768]	; 0x300
     874:	0b020000 	bleq	8087c <_monitor_vecs-0xf80784>
     878:	00000042 	andeq	r0, r0, r2, asr #32
     87c:	02007606 	andeq	r7, r0, #6291456	; 0x600000
     880:	0000420b 	andeq	r4, r0, fp, lsl #4
     884:	01070000 	mrseq	r0, (UNDEF: 7)
     888:	00000201 	andeq	r0, r0, r1, lsl #4
     88c:	79015201 	stmdbvc	r1, {r0, r9, ip, lr}
     890:	01000000 	mrseq	r0, (UNDEF: 0)
     894:	69050408 	stmdbvs	r5, {r3, sl}
     898:	0900746e 	stmdbeq	r0, {r1, r2, r3, r5, r6, sl, ip, sp, lr}
     89c:	00023201 	andeq	r3, r2, r1, lsl #4
     8a0:	01480100 	mrseq	r0, (UNDEF: 88)
     8a4:	010036f4 	strdeq	r3, [r0, -r4]
     8a8:	01003734 	tsteq	r0, r4, lsr r7
     8ac:	e5007d02 	str	r7, [r0, #-3330]	; 0xd02
     8b0:	0a000000 	beq	8b8 <_monitor_vecs-0x1000748>
     8b4:	48010063 	stmdami	r1, {r0, r1, r5, r6}
     8b8:	00000079 	andeq	r0, r0, r9, ror r0
     8bc:	000002fc 	strdeq	r0, [r0], -ip
     8c0:	0000250b 	andeq	r2, r0, fp, lsl #10
     8c4:	0036f400 	eorseq	pc, r6, r0, lsl #8
     8c8:	0000e801 	andeq	lr, r0, r1, lsl #16
     8cc:	c24a0100 	subgt	r0, sl, #0
     8d0:	0c000000 	stceq	0, cr0, [r0], {0}
     8d4:	00000036 	andeq	r0, r0, r6, lsr r0
     8d8:	20201018 	eorcs	r1, r0, r8, lsl r0
     8dc:	00490d00 	subeq	r0, r9, r0, lsl #26
     8e0:	37080000 	strcc	r0, [r8, -r0]
     8e4:	01000100 	mrseq	r0, (UNDEF: 16)
     8e8:	4c010000 	stcmi	0, cr0, [r1], {0}
     8ec:	0000610e 	andeq	r6, r0, lr, lsl #2
     8f0:	00030f00 	andeq	r0, r3, r0, lsl #30
     8f4:	00560c00 	subseq	r0, r6, r0, lsl #24
     8f8:	10000000 	andne	r0, r0, r0
     8fc:	00002020 	andeq	r2, r0, r0, lsr #32
     900:	00006b0f 	andeq	r6, r0, pc, lsl #22
     904:	00373400 	eorseq	r3, r7, r0, lsl #8
     908:	00375401 	eorseq	r5, r7, r1, lsl #8
     90c:	007d0201 	rsbseq	r0, sp, r1, lsl #4
     910:	00000130 	andeq	r0, r0, r0, lsr r1
     914:	00002510 	andeq	r2, r0, r0, lsl r5
     918:	00373400 	eorseq	r3, r7, r0, lsl #8
     91c:	00373c01 	eorseq	r3, r7, r1, lsl #24
     920:	16540101 	ldrbne	r0, [r4], -r1, lsl #2
     924:	0c000001 	stceq	0, cr0, [r0], {1}
     928:	00000036 	andeq	r0, r0, r6, lsr r0
     92c:	20201018 	eorcs	r1, r0, r8, lsl r0
     930:	00251100 	eoreq	r1, r5, r0, lsl #2
     934:	37440000 	strbcc	r0, [r4, -r0]
     938:	374c0100 	strbcc	r0, [ip, -r0, lsl #2]
     93c:	56010100 	strpl	r0, [r1], -r0, lsl #2
     940:	0000360c 	andeq	r3, r0, ip, lsl #12
     944:	20100000 	andscs	r0, r0, r0
     948:	09000020 	stmdbeq	r0, {r5}
     94c:	00020b01 	andeq	r0, r2, r1, lsl #22
     950:	01590100 	cmpeq	r9, r0, lsl #2
     954:	01003754 	tsteq	r0, r4, asr r7
     958:	01003788 	smlabbeq	r0, r8, r7, r3
     95c:	ac007d02 	stcge	13, cr7, [r0], {2}
     960:	0b000001 	bleq	96c <_monitor_vecs-0x1000694>
     964:	00000025 	andeq	r0, r0, r5, lsr #32
     968:	01003754 	tsteq	r0, r4, asr r7
     96c:	00000118 	andeq	r0, r0, r8, lsl r1
     970:	01655b01 	cmneq	r5, r1, lsl #22
     974:	360c0000 	strcc	r0, [ip], -r0
     978:	18000000 	stmdane	r0, {}	; <UNPREDICTABLE>
     97c:	00202010 	eoreq	r2, r0, r0, lsl r0
     980:	00006b11 	andeq	r6, r0, r1, lsl fp
     984:	00376400 	eorseq	r6, r7, r0, lsl #8
     988:	00377401 	eorseq	r7, r7, r1, lsl #8
     98c:	105c0101 	subsne	r0, ip, r1, lsl #2
     990:	00000025 	andeq	r0, r0, r5, lsr #32
     994:	01003764 	tsteq	r0, r4, ror #14
     998:	01003768 	tsteq	r0, r8, ror #14
     99c:	01915401 	orrseq	r5, r1, r1, lsl #8
     9a0:	360c0000 	strcc	r0, [ip], -r0
     9a4:	18000000 	stmdane	r0, {}	; <UNPREDICTABLE>
     9a8:	00202010 	eoreq	r2, r0, r0, lsl r0
     9ac:	00002511 	andeq	r2, r0, r1, lsl r5
     9b0:	00377000 	eorseq	r7, r7, r0
     9b4:	00377401 	eorseq	r7, r7, r1, lsl #8
     9b8:	0c560101 	ldfeqe	f0, [r6], {1}
     9bc:	00000036 	andeq	r0, r0, r6, lsr r0
     9c0:	20201000 	eorcs	r1, r0, r0
     9c4:	09000000 	stmdbeq	r0, {}	; <UNPREDICTABLE>
     9c8:	00022501 	andeq	r2, r2, r1, lsl #10
     9cc:	015f0100 	cmpeq	pc, r0, lsl #2
     9d0:	01003788 	smlabbeq	r0, r8, r7, r3
     9d4:	0100379c 			; <UNDEFINED> instruction: 0x0100379c
     9d8:	e4007d02 	str	r7, [r0], #-3330	; 0xd02
     9dc:	11000001 	tstne	r0, r1
     9e0:	00000049 	andeq	r0, r0, r9, asr #32
     9e4:	01003788 	smlabbeq	r0, r8, r7, r3
     9e8:	01003794 			; <UNDEFINED> instruction: 0x01003794
     9ec:	61126101 	tstvs	r2, r1, lsl #2
     9f0:	00000000 	andeq	r0, r0, r0
     9f4:	0000560c 	andeq	r5, r0, ip, lsl #12
     9f8:	20103000 	andscs	r3, r0, r0
     9fc:	13000020 	movwne	r0, #32
     a00:	00021901 	andeq	r1, r2, r1, lsl #18
     a04:	01650100 	cmneq	r5, r0, lsl #2
     a08:	0100379c 			; <UNDEFINED> instruction: 0x0100379c
     a0c:	010037f4 	strdeq	r3, [r0, -r4]
     a10:	14007d02 	strne	r7, [r0], #-3330	; 0xd02
     a14:	0000023c 	andeq	r0, r0, ip, lsr r2
     a18:	00426501 	subeq	r6, r2, r1, lsl #10
     a1c:	50010000 	andpl	r0, r1, r0
     a20:	0000490b 	andeq	r4, r0, fp, lsl #18
     a24:	00379c00 	eorseq	r9, r7, r0, lsl #24
     a28:	00013001 	andeq	r3, r1, r1
     a2c:	28670100 	stmdacs	r7!, {r8}^
     a30:	12000002 	andne	r0, r0, #2
     a34:	00000061 	andeq	r0, r0, r1, rrx
     a38:	00560c00 	subseq	r0, r6, r0, lsl #24
     a3c:	10380000 	eorsne	r0, r8, r0
     a40:	0b002020 	bleq	8ac8 <_monitor_vecs-0xff8538>
     a44:	00000049 	andeq	r0, r0, r9, asr #32
     a48:	010037a0 	smlatbeq	r0, r0, r7, r3
     a4c:	00000148 	andeq	r0, r0, r8, asr #2
     a50:	024c6801 	subeq	r6, ip, #65536	; 0x10000
     a54:	61150000 	tstvs	r5, r0
     a58:	ff000000 			; <UNDEFINED> instruction: 0xff000000
     a5c:	00560c07 	subseq	r0, r6, r7, lsl #24
     a60:	10440000 	subne	r0, r4, r0
     a64:	10002020 	andne	r2, r0, r0, lsr #32
     a68:	00000049 	andeq	r0, r0, r9, asr #32
     a6c:	010037b0 			; <UNDEFINED> instruction: 0x010037b0
     a70:	010037b8 			; <UNDEFINED> instruction: 0x010037b8
     a74:	026f6901 	rsbeq	r6, pc, #16384	; 0x4000
     a78:	61120000 	tstvs	r2, r0
     a7c:	01000000 	mrseq	r0, (UNDEF: 0)
     a80:	0000560c 	andeq	r5, r0, ip, lsl #12
     a84:	20102400 	andscs	r2, r0, r0, lsl #8
     a88:	49100020 	ldmdbmi	r0, {r5}
     a8c:	b8000000 	stmdalt	r0, {}	; <UNPREDICTABLE>
     a90:	c0010037 	andgt	r0, r1, r7, lsr r0
     a94:	01010037 	tsteq	r1, r7, lsr r0
     a98:	0002926a 	andeq	r9, r2, sl, ror #4
     a9c:	00611200 	rsbeq	r1, r1, r0, lsl #4
     aa0:	0c280000 	stceq	0, cr0, [r8]
     aa4:	00000056 	andeq	r0, r0, r6, asr r0
     aa8:	20201028 	eorcs	r1, r0, r8, lsr #32
     aac:	00491000 	subeq	r1, r9, r0
     ab0:	37c40000 	strbcc	r0, [r4, r0]
     ab4:	37cc0100 	strbcc	r0, [ip, r0, lsl #2]
     ab8:	6b010100 	blvs	40ec0 <_monitor_vecs-0xfc0140>
     abc:	000002b5 			; <UNDEFINED> instruction: 0x000002b5
     ac0:	00006112 	andeq	r6, r0, r2, lsl r1
     ac4:	560c6000 	strpl	r6, [ip], -r0
     ac8:	2c000000 	stccs	0, cr0, [r0], {0}
     acc:	00202010 	eoreq	r2, r0, r0, lsl r0
     ad0:	00004910 	andeq	r4, r0, r0, lsl r9
     ad4:	0037cc00 	eorseq	ip, r7, r0, lsl #24
     ad8:	0037d001 	eorseq	sp, r7, r1
     adc:	d86c0101 	stmdale	ip!, {r0, r8}^
     ae0:	12000002 	andne	r0, r0, #2
     ae4:	00000061 	andeq	r0, r0, r1, rrx
     ae8:	00560c00 	subseq	r0, r6, r0, lsl #24
     aec:	10340000 	eorsne	r0, r4, r0
     af0:	10002020 	andne	r2, r0, r0, lsr #32
     af4:	00000049 	andeq	r0, r0, r9, asr #32
     af8:	010037d0 	ldrdeq	r3, [r0, -r0]
     afc:	010037d8 	ldrdeq	r3, [r0, -r8]
     b00:	02fb6e01 	rscseq	r6, fp, #16
     b04:	61120000 	tstvs	r2, r0
     b08:	10000000 	andne	r0, r0, r0
     b0c:	0000560c 	andeq	r5, r0, ip, lsl #12
     b10:	20103800 	andscs	r3, r0, r0, lsl #16
     b14:	49110020 	ldmdbmi	r1, {r5}
     b18:	d8000000 	stmdale	r0, {}	; <UNPREDICTABLE>
     b1c:	e4010037 	str	r0, [r1], #-55	; 0x37
     b20:	01010037 	tsteq	r1, r7, lsr r0
     b24:	00611570 	rsbeq	r1, r1, r0, ror r5
     b28:	03010000 	movweq	r0, #4096	; 0x1000
     b2c:	0000560c 	andeq	r5, r0, ip, lsl #12
     b30:	20103000 	andscs	r3, r0, r0
     b34:	00000020 	andeq	r0, r0, r0, lsr #32
     b38:	0000035e 	andeq	r0, r0, lr, asr r3
     b3c:	038f0002 	orreq	r0, pc, #2
     b40:	01040000 	mrseq	r0, (UNDEF: 4)
     b44:	0000002d 	andeq	r0, r0, sp, lsr #32
     b48:	00025701 	andeq	r5, r2, r1, lsl #14
     b4c:	00003900 	andeq	r3, r0, r0, lsl #18
     b50:	0037f400 	eorseq	pc, r7, r0, lsl #8
     b54:	0038d801 	eorseq	sp, r8, r1, lsl #16
     b58:	0002aa01 	andeq	sl, r2, r1, lsl #20
     b5c:	00ca0200 	sbceq	r0, sl, r0, lsl #4
     b60:	03040000 	movweq	r0, #16384	; 0x4000
     b64:	0000680a 	andeq	r6, r0, sl, lsl #16
     b68:	01310300 	teqeq	r1, r0, lsl #6
     b6c:	03000000 	movweq	r0, #0
     b70:	000000b1 	strheq	r0, [r0], -r1
     b74:	01ac0301 			; <UNDEFINED> instruction: 0x01ac0301
     b78:	03020000 	movweq	r0, #8192	; 0x2000
     b7c:	000001a7 	andeq	r0, r0, r7, lsr #3
     b80:	01930303 	orrseq	r0, r3, r3, lsl #6
     b84:	03040000 	movweq	r0, #16384	; 0x4000
     b88:	00000198 	muleq	r0, r8, r1
     b8c:	019d0305 	orrseq	r0, sp, r5, lsl #6
     b90:	03060000 	movweq	r0, #24576	; 0x6000
     b94:	000001a2 	andeq	r0, r0, r2, lsr #3
     b98:	00e90307 	rsceq	r0, r9, r7, lsl #6
     b9c:	00070000 	andeq	r0, r7, r0
     ba0:	00016802 	andeq	r6, r1, r2, lsl #16
     ba4:	16030400 	strne	r0, [r3], -r0, lsl #8
     ba8:	00000087 	andeq	r0, r0, r7, lsl #1
     bac:	0001c403 	andeq	ip, r1, r3, lsl #8
     bb0:	bb030000 	bllt	c0bb8 <_monitor_vecs-0xf40448>
     bb4:	01000001 	tsteq	r0, r1
     bb8:	00001103 	andeq	r1, r0, r3, lsl #2
     bbc:	04000200 	streq	r0, [r0], #-512	; 0x200
     bc0:	00000183 	andeq	r0, r0, r3, lsl #3
     bc4:	be1c030c 	cdplt	3, 1, cr0, cr12, cr12, {0}
     bc8:	05000000 	streq	r0, [r0]
     bcc:	006e6970 	rsbeq	r6, lr, r0, ror r9
     bd0:	00be1d03 	adcseq	r1, lr, r3, lsl #26
     bd4:	23020000 	movwcs	r0, #8192	; 0x2000
     bd8:	75700500 	ldrbvc	r0, [r0, #-1280]!	; 0x500
     bdc:	1e030064 	cdpne	0, 0, cr0, cr3, cr4, {3}
     be0:	00000068 	andeq	r0, r0, r8, rrx
     be4:	06042302 	streq	r2, [r4], -r2, lsl #6
     be8:	000000cf 	andeq	r0, r0, pc, asr #1
     bec:	00251f03 	eoreq	r1, r5, r3, lsl #30
     bf0:	23020000 	movwcs	r0, #8192	; 0x2000
     bf4:	04070008 	streq	r0, [r7], #-8
     bf8:	746e6905 	strbtvc	r6, [lr], #-2309	; 0x905
     bfc:	00990800 	addseq	r0, r9, r0, lsl #16
     c00:	10020000 	andne	r0, r2, r0
     c04:	0000e201 	andeq	lr, r0, r1, lsl #4
     c08:	00e20300 	rsceq	r0, r2, r0, lsl #6
     c0c:	97090000 	strls	r0, [r9, -r0]
     c10:	02000005 	andeq	r0, r0, #5
     c14:	0000e210 	andeq	lr, r0, r0, lsl r2
     c18:	040a0000 	streq	r0, [sl]
     c1c:	00009f07 	andeq	r9, r0, r7, lsl #30
     c20:	00890b00 	addeq	r0, r9, r0, lsl #22
     c24:	0b020000 	bleq	80c2c <_monitor_vecs-0xf803d4>
     c28:	010b0301 	tsteq	fp, r1, lsl #6
     c2c:	97090000 	strls	r0, [r9, -r0]
     c30:	02000005 	andeq	r0, r0, #5
     c34:	0000e20b 	andeq	lr, r0, fp, lsl #4
     c38:	00760c00 	rsbseq	r0, r6, r0, lsl #24
     c3c:	00e20b02 	rsceq	r0, r2, r2, lsl #22
     c40:	0b000000 	bleq	c48 <_monitor_vecs-0x10003b8>
     c44:	00000289 	andeq	r0, r0, r9, lsl #5
     c48:	01011e01 	tsteq	r1, r1, lsl #28
     c4c:	00000143 	andeq	r0, r0, r3, asr #2
     c50:	6766630c 	strbvs	r6, [r6, -ip, lsl #6]!
     c54:	431e0100 	tstmi	lr, #0
     c58:	0d000001 	stceq	0, cr0, [r0, #-4]
     c5c:	0000027f 	andeq	r0, r0, pc, ror r2
     c60:	014e2001 	cmpeq	lr, r1
     c64:	990d0000 	stmdbls	sp, {}	; <UNPREDICTABLE>
     c68:	01000002 	tsteq	r0, r2
     c6c:	00014e21 	andeq	r4, r1, r1, lsr #28
     c70:	00760e00 	rsbseq	r0, r6, r0, lsl #28
     c74:	00e22201 	rsceq	r2, r2, r1, lsl #4
     c78:	0f000000 	svceq	0x00000000
     c7c:	00014904 	andeq	r4, r1, r4, lsl #18
     c80:	00871000 	addeq	r1, r7, r0
     c84:	040a0000 	streq	r0, [sl]
     c88:	0000a407 	andeq	sl, r0, r7, lsl #8
     c8c:	007a0b00 	rsbseq	r0, sl, r0, lsl #22
     c90:	0a010000 	beq	40c98 <_monitor_vecs-0xfc0368>
     c94:	016c0301 	cmneq	ip, r1, lsl #6
     c98:	6e0c0000 	cdpvs	0, 0, cr0, cr12, cr0, {0}
     c9c:	e20a0100 	and	r0, sl, #0
     ca0:	00000000 	andeq	r0, r0, r0
     ca4:	0002420b 	andeq	r4, r2, fp, lsl #4
     ca8:	012a0100 	teqeq	sl, r0, lsl #2
     cac:	00019b01 	andeq	r9, r1, r1, lsl #22
     cb0:	66630c00 	strbtvs	r0, [r3], -r0, lsl #24
     cb4:	2a010067 	bcs	40e58 <_monitor_vecs-0xfc01a8>
     cb8:	00000143 	andeq	r0, r0, r3, asr #2
     cbc:	7469620e 	strbtvc	r6, [r9], #-526	; 0x20e
     cc0:	4e2c0100 	sufmie	f0, f4, f0
     cc4:	0d000001 	stceq	0, cr0, [r0, #-4]
     cc8:	00000284 	andeq	r0, r0, r4, lsl #5
     ccc:	014e2d01 	cmpeq	lr, r1, lsl #26
     cd0:	11000000 	mrsne	r0, (UNDEF: 0)
     cd4:	00026001 	andeq	r6, r2, r1
     cd8:	01360100 	teqeq	r6, r0, lsl #2
     cdc:	000000be 	strheq	r0, [r0], -lr
     ce0:	010037f4 	strdeq	r3, [r0, -r4]
     ce4:	01003898 			; <UNDEFINED> instruction: 0x01003898
     ce8:	0000032d 	andeq	r0, r0, sp, lsr #6
     cec:	0000030d 	andeq	r0, r0, sp, lsl #6
     cf0:	67666312 			; <UNDEFINED> instruction: 0x67666312
     cf4:	43360100 	teqmi	r6, #0
     cf8:	4d000001 	stcmi	0, cr0, [r0, #-4]
     cfc:	13000003 	movwne	r0, #3
     d00:	0000010b 	andeq	r0, r0, fp, lsl #2
     d04:	010037f8 	strdeq	r3, [r0, -r8]
     d08:	00000160 	andeq	r0, r0, r0, ror #2
     d0c:	02393801 	eorseq	r3, r9, #65536	; 0x10000
     d10:	88140000 	ldmdahi	r4, {}	; <UNPREDICTABLE>
     d14:	15000001 	strne	r0, [r0, #-1]
     d18:	00000123 	andeq	r0, r0, r3, lsr #2
     d1c:	00000360 	andeq	r0, r0, r0, ror #6
     d20:	00012e15 	andeq	r2, r1, r5, lsl lr
     d24:	00038700 	andeq	r8, r3, r0, lsl #14
     d28:	01391500 	teqeq	r9, r0, lsl #10
     d2c:	03b60000 			; <UNDEFINED> instruction: 0x03b60000
     d30:	c5160000 	ldrgt	r0, [r6]
     d34:	1c000000 	stcne	0, cr0, [r0], {0}
     d38:	20010038 	andcs	r0, r1, r8, lsr r0
     d3c:	01010038 	tsteq	r1, r8, lsr r0
     d40:	00021724 	andeq	r1, r2, r4, lsr #14
     d44:	00d61700 	sbcseq	r1, r6, r0, lsl #14
     d48:	03d40000 	bicseq	r0, r4, #0
     d4c:	18000000 	stmdane	r0, {}	; <UNPREDICTABLE>
     d50:	000000e9 	andeq	r0, r0, r9, ror #1
     d54:	01003850 	tsteq	r0, r0, asr r8
     d58:	01003854 	tsteq	r0, r4, asr r8
     d5c:	01192701 	tsteq	r9, r1, lsl #14
     d60:	01000001 	tsteq	r0, r1
     d64:	00f61754 	rscseq	r1, r6, r4, asr r7
     d68:	04090000 	streq	r0, [r9]
     d6c:	00000000 	andeq	r0, r0, r0
     d70:	016c1a00 	cmneq	ip, r0, lsl #20
     d74:	38340000 	ldmdacc	r4!, {}	; <UNPREDICTABLE>
     d78:	01b00100 	lslseq	r0, r0, #2
     d7c:	39010000 	stmdbcc	r1, {}	; <UNPREDICTABLE>
     d80:	0001d014 	andeq	sp, r1, r4, lsl r0
     d84:	01841b00 	orreq	r1, r4, r0, lsl #22
     d88:	53010000 	movwpl	r0, #4096	; 0x1000
     d8c:	00018f1b 	andeq	r8, r1, fp, lsl pc
     d90:	13530100 	cmpne	r3, #0
     d94:	00000155 	andeq	r0, r0, r5, asr r1
     d98:	0100384c 	tsteq	r0, ip, asr #16
     d9c:	000001f0 	strdeq	r0, [r0], -r0	; <UNPREDICTABLE>
     da0:	02783001 	rsbseq	r3, r8, #1
     da4:	62170000 	andsvs	r0, r7, #0
     da8:	27000001 	strcs	r0, [r0, -r1]
     dac:	00000004 	andeq	r0, r0, r4
     db0:	0000e913 	andeq	lr, r0, r3, lsl r9
     db4:	00384800 	eorseq	r4, r8, r0, lsl #16
     db8:	00020801 	andeq	r0, r2, r1, lsl #16
     dbc:	9e2f0100 	suflse	f0, f7, f0
     dc0:	17000002 	strne	r0, [r0, -r2]
     dc4:	00000101 	andeq	r0, r0, r1, lsl #2
     dc8:	0000043c 	andeq	r0, r0, ip, lsr r4
     dcc:	0000f61c 	andeq	pc, r0, ip, lsl r6	; <UNPREDICTABLE>
     dd0:	20009400 	andcs	r9, r0, r0, lsl #8
     dd4:	e9160020 	ldmdb	r6, {r5}
     dd8:	70000000 	andvc	r0, r0, r0
     ddc:	74010038 	strvc	r0, [r1], #-56	; 0x38
     de0:	01010038 	tsteq	r1, r8, lsr r0
     de4:	0002c831 	andeq	ip, r2, r1, lsr r8
     de8:	01011900 	tsteq	r1, r0, lsl #18
     dec:	53010000 	movwpl	r0, #4096	; 0x1000
     df0:	0000f619 	andeq	pc, r0, r9, lsl r6	; <UNPREDICTABLE>
     df4:	a6730900 	ldrbtge	r0, [r3], -r0, lsl #18
     df8:	00c0a080 	sbceq	sl, r0, r0, lsl #1
     dfc:	009f2432 	addseq	r2, pc, r2, lsr r4	; <UNPREDICTABLE>
     e00:	00015516 	andeq	r5, r1, r6, lsl r5
     e04:	00387400 	eorseq	r7, r8, r0, lsl #8
     e08:	00387c01 	eorseq	r7, r8, r1, lsl #24
     e0c:	e5320101 	ldr	r0, [r2, #-257]!	; 0x101
     e10:	17000002 	strne	r0, [r0, -r2]
     e14:	00000162 	andeq	r0, r0, r2, ror #2
     e18:	0000046b 	andeq	r0, r0, fp, ror #8
     e1c:	00e91800 	rsceq	r1, r9, r0, lsl #16
     e20:	387c0000 	ldmdacc	ip!, {}^	; <UNPREDICTABLE>
     e24:	38840100 	stmcc	r4, {r8}
     e28:	33010100 	movwcc	r0, #4352	; 0x1100
     e2c:	0001011d 	andeq	r0, r1, sp, lsl r1
     e30:	f6190000 			; <UNDEFINED> instruction: 0xf6190000
     e34:	09000000 	stmdbeq	r0, {}	; <UNPREDICTABLE>
     e38:	a080a673 	addge	sl, r0, r3, ror r6
     e3c:	243200c0 	ldrtcs	r0, [r2], #-192	; 0xc0
     e40:	0000009f 	muleq	r0, pc, r0	; <UNPREDICTABLE>
     e44:	6f011e00 	svcvs	0x00011e00
     e48:	01000002 	tsteq	r0, r2
     e4c:	00be013e 	adcseq	r0, lr, lr, lsr r1
     e50:	38980000 	ldmcc	r8, {}	; <UNPREDICTABLE>
     e54:	38d80100 	ldmcc	r8, {r8}^
     e58:	04800100 	streq	r0, [r0], #256	; 0x100
     e5c:	63120000 	tstvs	r2, #0
     e60:	01006766 	tsteq	r0, r6, ror #14
     e64:	0001433e 	andeq	r4, r1, lr, lsr r3
     e68:	0004a000 	andeq	sl, r4, r0
     e6c:	02511f00 	subseq	r1, r1, #0
     e70:	3f010000 	svccc	0x00010000
     e74:	0000014e 	andeq	r0, r0, lr, asr #2
     e78:	000004be 			; <UNDEFINED> instruction: 0x000004be
     e7c:	01006d20 	tsteq	r0, r0, lsr #26
     e80:	00014e41 	andeq	r4, r1, r1, asr #28
     e84:	0004dc00 	andeq	sp, r4, r0, lsl #24
     e88:	72652000 	rsbvc	r2, r5, #0
     e8c:	42010072 	andmi	r0, r1, #114	; 0x72
     e90:	000000be 	strheq	r0, [r0], -lr
     e94:	00000507 	andeq	r0, r0, r7, lsl #10
     e98:	00570000 	subseq	r0, r7, r0
     e9c:	00020000 	andeq	r0, r2, r0
     ea0:	00000540 	andeq	r0, r0, r0, asr #10
     ea4:	03430104 	movteq	r0, #12548	; 0x3104
     ea8:	02200000 	eoreq	r0, r0, #0
     eac:	7a740000 	bvc	1d00eb4 <__bug_end+0xcfaf30>
     eb0:	73636576 	cmnvc	r3, #494927872	; 0x1d800000
     eb4:	2f00532e 	svccs	0x0000532e
     eb8:	656d6f68 	strbvs	r6, [sp, #-3944]!	; 0xf68
     ebc:	6573752f 	ldrbvs	r7, [r3, #-1327]!	; 0x52f
     ec0:	72442f72 	subvc	r2, r4, #456	; 0x1c8
     ec4:	6f62706f 	svcvs	0x0062706f
     ec8:	69672f78 	stmdbvs	r7!, {r3, r4, r5, r6, r8, r9, sl, fp, sp}^
     ecc:	62756874 	rsbsvs	r6, r5, #7602176	; 0x740000
     ed0:	7361522f 	cmnvc	r1, #-268435454	; 0xf0000002
     ed4:	72656270 	rsbvc	r6, r5, #7
     ed8:	69507972 	ldmdbvs	r0, {r1, r4, r5, r6, r8, fp, ip, sp, lr}^
     edc:	6970722f 	ldmdbvs	r0!, {r0, r1, r2, r3, r5, r9, ip, sp, lr}^
     ee0:	6264672d 	rsbvs	r6, r4, #11796480	; 0xb40000
     ee4:	554e4700 	strbpl	r4, [lr, #-1792]	; 0x700
     ee8:	20534120 	subscs	r4, r3, r0, lsr #2
     eec:	31322e32 	teqcc	r2, r2, lsr lr
     ef0:	0100302e 	tsteq	r0, lr, lsr #32
     ef4:	00166a80 	andseq	r6, r6, r0, lsl #21
     ef8:	52000200 	andpl	r0, r0, #0
     efc:	04000005 	streq	r0, [r0], #-5
     f00:	00002d01 	andeq	r2, r0, r1, lsl #26
     f04:	059c0100 	ldreq	r0, [ip, #256]	; 0x100
     f08:	00390000 	eorseq	r0, r9, r0
     f0c:	3a1c0000 	bcc	700f14 <_monitor_vecs-0x9000ec>
     f10:	46300100 	ldrtmi	r0, [r0], -r0, lsl #2
     f14:	03a00100 	moveq	r0, #0
     f18:	04020000 	streq	r0, [r2]
     f1c:	0000002b 	andeq	r0, r0, fp, lsr #32
     f20:	00003003 	andeq	r3, r0, r3
     f24:	08010400 	stmdaeq	r1, {sl}
     f28:	00000123 	andeq	r0, r0, r3, lsr #2
     f2c:	a4070404 	strge	r0, [r7], #-1028	; 0x404
     f30:	04000000 	streq	r0, [r0]
     f34:	009f0704 	addseq	r0, pc, r4, lsl #14
     f38:	04050000 	streq	r0, [r5]
     f3c:	00a70904 	adceq	r0, r7, r4, lsl #18
     f40:	52060000 	andpl	r0, r6, #0
     f44:	06000030 			; <UNDEFINED> instruction: 0x06000030
     f48:	01003152 	tsteq	r0, r2, asr r1
     f4c:	00325206 	eorseq	r5, r2, r6, lsl #4
     f50:	33520602 	cmpcc	r2, #2097152	; 0x200000
     f54:	52060300 	andpl	r0, r6, #0
     f58:	06040034 			; <UNDEFINED> instruction: 0x06040034
     f5c:	05003552 	streq	r3, [r0, #-1362]	; 0x552
     f60:	00365206 	eorseq	r5, r6, r6, lsl #4
     f64:	37520606 	ldrbcc	r0, [r2, -r6, lsl #12]
     f68:	52060700 	andpl	r0, r6, #0
     f6c:	06080038 			; <UNDEFINED> instruction: 0x06080038
     f70:	09003952 	stmdbeq	r0, {r1, r4, r6, r8, fp, ip, sp}
     f74:	30315206 	eorscc	r5, r1, r6, lsl #4
     f78:	52060a00 	andpl	r0, r6, #0
     f7c:	0b003131 	bleq	d448 <_monitor_vecs-0xff3bb8>
     f80:	32315206 	eorscc	r5, r1, #1610612736	; 0x60000000
     f84:	53060c00 	movwpl	r0, #27648	; 0x6c00
     f88:	060d0050 			; <UNDEFINED> instruction: 0x060d0050
     f8c:	0e00524c 	cdpeq	2, 0, cr5, cr0, cr12, {2}
     f90:	00435006 	subeq	r5, r3, r6
     f94:	018e070f 	orreq	r0, lr, pc, lsl #14
     f98:	00100000 	andseq	r0, r0, r0
     f9c:	00017a08 	andeq	r7, r1, r8, lsl #20
     fa0:	0f044400 	svceq	0x00044400
     fa4:	000000c0 	andeq	r0, r0, r0, asr #1
     fa8:	04007209 	streq	r7, [r0], #-521	; 0x209
     fac:	0000c010 	andeq	ip, r0, r0, lsl r0
     fb0:	00230200 	eoreq	r0, r3, r0, lsl #4
     fb4:	003e0a00 	eorseq	r0, lr, r0, lsl #20
     fb8:	00d00000 	sbcseq	r0, r0, r0
     fbc:	370b0000 	strcc	r0, [fp, -r0]
     fc0:	10000000 	andne	r0, r0, r0
     fc4:	03620c00 	cmneq	r2, #0
     fc8:	09030000 	stmdbeq	r3, {}	; <UNPREDICTABLE>
     fcc:	0000003e 	andeq	r0, r0, lr, lsr r0
     fd0:	0003610c 	andeq	r6, r3, ip, lsl #2
     fd4:	e60a0300 	str	r0, [sl], -r0, lsl #6
     fd8:	04000000 	streq	r0, [r0]
     fdc:	00c10504 	sbceq	r0, r1, r4, lsl #10
     fe0:	8f0c0000 	svchi	0x000c0000
     fe4:	03000003 	movweq	r0, #3
     fe8:	0000f80b 	andeq	pc, r0, fp, lsl #16
     fec:	08010400 	stmdaeq	r1, {sl}
     ff0:	0000011a 	andeq	r0, r0, sl, lsl r1
     ff4:	0004950c 	andeq	r9, r4, ip, lsl #10
     ff8:	0a0c0300 	beq	301c00 <_monitor_vecs-0xcff400>
     ffc:	04000001 	streq	r0, [r0], #-1
    1000:	00670702 	rsbeq	r0, r7, r2, lsl #14
    1004:	800c0000 	andhi	r0, ip, r0
    1008:	03000004 	movweq	r0, #4
    100c:	00003e0d 	andeq	r3, r0, sp, lsl #28
    1010:	03c90c00 	biceq	r0, r9, #0
    1014:	0f030000 	svceq	0x00030000
    1018:	00000030 	andeq	r0, r0, r0, lsr r0
    101c:	0003f508 	andeq	pc, r3, r8, lsl #10
    1020:	15030800 	strne	r0, [r3, #-2048]	; 0x800
    1024:	00000150 	andeq	r0, r0, r0, asr r1
    1028:	0005300d 	andeq	r3, r5, sp
    102c:	25160300 	ldrcs	r0, [r6, #-768]	; 0x300
    1030:	02000000 	andeq	r0, r0, #0
    1034:	eb0d0023 	bl	3410c8 <_monitor_vecs-0xcbff38>
    1038:	03000002 	movweq	r0, #2
    103c:	0000d017 	andeq	sp, r0, r7, lsl r0
    1040:	04230200 	strteq	r0, [r3], #-512	; 0x200
    1044:	05bb0800 	ldreq	r0, [fp, #2048]!	; 0x800
    1048:	01080000 	mrseq	r0, (UNDEF: 8)
    104c:	00017928 	andeq	r7, r1, r8, lsr #18
    1050:	05970d00 	ldreq	r0, [r7, #3328]	; 0xd00
    1054:	29010000 	stmdbcs	r1, {}	; <UNPREDICTABLE>
    1058:	00000179 	andeq	r0, r0, r9, ror r1
    105c:	0d002302 	stceq	3, cr2, [r0, #-8]
    1060:	0000052a 	andeq	r0, r0, sl, lsr #10
    1064:	01112a01 	tsteq	r1, r1, lsl #20
    1068:	23020000 	movwcs	r0, #8192	; 0x2000
    106c:	04020004 	streq	r0, [r2], #-4
    1070:	00000111 	andeq	r0, r0, r1, lsl r1
    1074:	0003560e 	andeq	r5, r3, lr, lsl #12
    1078:	35010800 	strcc	r0, [r1, #-2048]	; 0x800
    107c:	0001ab01 	andeq	sl, r1, r1, lsl #22
    1080:	66700f00 	ldrbtvs	r0, [r0], -r0, lsl #30
    1084:	36010078 			; <UNDEFINED> instruction: 0x36010078
    1088:	00002501 	andeq	r2, r0, r1, lsl #10
    108c:	00230200 	eoreq	r0, r3, r0, lsl #4
    1090:	00046910 	andeq	r6, r4, r0, lsl r9
    1094:	01370100 	teqeq	r7, r0, lsl #2
    1098:	000001cd 	andeq	r0, r0, sp, asr #3
    109c:	00042302 	andeq	r2, r4, r2, lsl #6
    10a0:	01c00111 	biceq	r0, r0, r1, lsl r1
    10a4:	01c00000 	biceq	r0, r0, r0
    10a8:	c7120000 	ldrgt	r0, [r2, -r0]
    10ac:	12000001 	andne	r0, r0, #1
    10b0:	00000025 	andeq	r0, r0, r5, lsr #32
    10b4:	05041300 	streq	r1, [r4, #-768]	; 0x300
    10b8:	00746e69 	rsbseq	r6, r4, r9, ror #28
    10bc:	00a70402 	adceq	r0, r7, r2, lsl #8
    10c0:	04020000 	streq	r0, [r2]
    10c4:	000001ab 	andeq	r0, r0, fp, lsr #3
    10c8:	0004e714 	andeq	lr, r4, r4, lsl r7
    10cc:	013d0100 	teqeq	sp, r0, lsl #2
    10d0:	04341403 	ldrteq	r1, [r4], #-1027	; 0x403
    10d4:	42010000 	andmi	r0, r1, #0
    10d8:	22150301 	andscs	r0, r5, #67108864	; 0x4000000
    10dc:	01000003 	tsteq	r0, r3
    10e0:	09030131 	stmdbeq	r3, {r0, r4, r5, r8}
    10e4:	16000002 	strne	r0, [r0], -r2
    10e8:	0000015b 	andeq	r0, r0, fp, asr r1
    10ec:	003e3101 	eorseq	r3, lr, r1, lsl #2
    10f0:	65170000 	ldrvs	r0, [r7]
    10f4:	0100646e 	tsteq	r0, lr, ror #8
    10f8:	00003e31 	andeq	r3, r0, r1, lsr lr
    10fc:	9d150000 	ldcls	0, cr0, [r5]
    1100:	01000003 	tsteq	r0, r3
    1104:	2d030137 	stfcss	f0, [r3, #-220]	; 0xffffff24
    1108:	16000002 	strne	r0, [r0], -r2
    110c:	0000015b 	andeq	r0, r0, fp, asr r1
    1110:	003e3701 	eorseq	r3, lr, r1, lsl #14
    1114:	65170000 	ldrvs	r0, [r7]
    1118:	0100646e 	tsteq	r0, lr, ror #8
    111c:	00003e37 	andeq	r3, r0, r7, lsr lr
    1120:	88150000 	ldmdahi	r5, {}	; <UNPREDICTABLE>
    1124:	01000005 	tsteq	r0, r5
    1128:	44010171 	strmi	r0, [r1], #-369	; 0x171
    112c:	17000002 	strne	r0, [r0, -r2]
    1130:	71010062 	tstvc	r1, r2, rrx
    1134:	00000244 	andeq	r0, r0, r4, asr #4
    1138:	50040200 	andpl	r0, r4, r0, lsl #4
    113c:	18000001 	stmdane	r0, {r0}
    1140:	000004bb 			; <UNDEFINED> instruction: 0x000004bb
    1144:	37011201 	strcc	r1, [r1, -r1, lsl #4]
    1148:	03000000 	movweq	r0, #0
    114c:	00000265 	andeq	r0, r0, r5, ror #4
    1150:	01007817 	tsteq	r0, r7, lsl r8
    1154:	00003712 	andeq	r3, r0, r2, lsl r7
    1158:	89150000 	ldmdbhi	r5, {}	; <UNPREDICTABLE>
    115c:	02000000 	andeq	r0, r0, #0
    1160:	8703010b 	strhi	r0, [r3, -fp, lsl #2]
    1164:	16000002 	strne	r0, [r0], -r2
    1168:	00000597 	muleq	r0, r7, r5
    116c:	003e0b02 	eorseq	r0, lr, r2, lsl #22
    1170:	76170000 	ldrvc	r0, [r7], -r0
    1174:	3e0b0200 	cdpcc	2, 0, cr0, cr11, cr0, {0}
    1178:	00000000 	andeq	r0, r0, r0
    117c:	00057619 	andeq	r7, r5, r9, lsl r6
    1180:	01080100 	mrseq	r0, (UNDEF: 24)
    1184:	0001c001 	andeq	ip, r1, r1
    1188:	02b00100 	adcseq	r0, r0, #0
    118c:	621a0000 	andsvs	r0, sl, #0
    1190:	01080100 	mrseq	r0, (UNDEF: 24)
    1194:	000002b0 			; <UNDEFINED> instruction: 0x000002b0
    1198:	0003c41b 	andeq	ip, r3, fp, lsl r4
    119c:	01080100 	mrseq	r0, (UNDEF: 24)
    11a0:	0000011c 	andeq	r0, r0, ip, lsl r1
    11a4:	30040200 	andcc	r0, r4, r0, lsl #4
    11a8:	19000000 	stmdbne	r0, {}	; <UNPREDICTABLE>
    11ac:	000002d1 	ldrdeq	r0, [r0], -r1
    11b0:	01011801 	tsteq	r1, r1, lsl #16
    11b4:	000000ed 	andeq	r0, r0, sp, ror #1
    11b8:	0002d301 	andeq	sp, r2, r1, lsl #6
    11bc:	00761a00 	rsbseq	r1, r6, r0, lsl #20
    11c0:	ed011801 	stc	8, cr1, [r1, #-4]
    11c4:	00000000 	andeq	r0, r0, r0
    11c8:	0005a618 	andeq	sl, r5, r8, lsl r6
    11cc:	01d20100 	bicseq	r0, r2, r0, lsl #2
    11d0:	000000db 	ldrdeq	r0, [r0], -fp
    11d4:	00031801 	andeq	r1, r3, r1, lsl #16
    11d8:	65761700 	ldrbvs	r1, [r6, #-1792]!	; 0x700
    11dc:	d2010063 	andle	r0, r1, #99	; 0x63
    11e0:	00000318 	andeq	r0, r0, r8, lsl r3
    11e4:	00025116 	andeq	r5, r2, r6, lsl r1
    11e8:	d0d30100 	sbcsle	r0, r3, r0, lsl #2
    11ec:	1c000000 	stcne	0, cr0, [r0], {0}
    11f0:	d5010076 	strle	r0, [r1, #-118]	; 0x76
    11f4:	00000318 	andeq	r0, r0, r8, lsl r3
    11f8:	0100701c 	tsteq	r0, ip, lsl r0
    11fc:	000025d6 	ldrdeq	r2, [r0], -r6
    1200:	03071d00 	movweq	r1, #32000	; 0x7d00
    1204:	d7010000 	strle	r0, [r1, -r0]
    1208:	000000db 	ldrdeq	r0, [r0], -fp
    120c:	1e040200 	cdpne	2, 0, cr0, cr4, cr0, {0}
    1210:	03000003 	movweq	r0, #3
    1214:	00000127 	andeq	r0, r0, r7, lsr #2
    1218:	0004d819 	andeq	sp, r4, r9, lsl r8
    121c:	01300100 	teqeq	r0, r0, lsl #2
    1220:	0001c001 	andeq	ip, r1, r1
    1224:	03420100 	movteq	r0, #8448	; 0x2100
    1228:	6d1a0000 	ldcvs	0, cr0, [sl]
    122c:	01006773 	tsteq	r0, r3, ror r7
    1230:	00250130 	eoreq	r0, r5, r0, lsr r1
    1234:	15000000 	strne	r0, [r0]
    1238:	000002a2 	andeq	r0, r0, r2, lsr #5
    123c:	0101f501 	tsteq	r1, r1, lsl #10
    1240:	00000365 	andeq	r0, r0, r5, ror #6
    1244:	00706217 	rsbseq	r6, r0, r7, lsl r2
    1248:	0244f501 	subeq	pc, r4, #4194304	; 0x400000
    124c:	4a1d0000 	bmi	741254 <_monitor_vecs-0x8bfdac>
    1250:	01000003 	tsteq	r0, r3
    1254:	000375f7 	strdeq	r7, [r3], -r7	; <UNPREDICTABLE>
    1258:	300a0000 	andcc	r0, sl, r0
    125c:	75000000 	strvc	r0, [r0]
    1260:	0b000003 	bleq	1274 <_monitor_vecs-0xfffd8c>
    1264:	00000037 	andeq	r0, r0, r7, lsr r0
    1268:	65030003 	strvs	r0, [r3, #-3]
    126c:	19000003 	stmdbne	r0, {r0, r1}
    1270:	00000369 	andeq	r0, r0, r9, ror #6
    1274:	01011f01 	tsteq	r1, r1, lsl #30
    1278:	000001c0 	andeq	r0, r0, r0, asr #3
    127c:	0003a301 	andeq	sl, r3, r1, lsl #6
    1280:	73641a00 	cmnvc	r4, #0
    1284:	1f010074 	svcne	0x00010074
    1288:	0003a301 	andeq	sl, r3, r1, lsl #6
    128c:	00621e00 	rsbeq	r1, r2, r0, lsl #28
    1290:	a9012101 	stmdbge	r1, {r0, r8, sp}
    1294:	00000003 	andeq	r0, r0, r3
    1298:	00ed0402 	rsceq	r0, sp, r2, lsl #8
    129c:	300a0000 	andcc	r0, sl, r0
    12a0:	b9000000 	stmdblt	r0, {}	; <UNPREDICTABLE>
    12a4:	0b000003 	bleq	12b8 <_monitor_vecs-0xfffd48>
    12a8:	00000037 	andeq	r0, r0, r7, lsr r0
    12ac:	701f0002 	andsvc	r0, pc, r2
    12b0:	01000004 	tsteq	r0, r4
    12b4:	0101012b 	tsteq	r1, fp, lsr #2
    12b8:	000003d4 	ldrdeq	r0, [r0], -r4
    12bc:	00042c1b 	andeq	r2, r4, fp, lsl ip
    12c0:	012b0100 	teqeq	fp, r0, lsl #2
    12c4:	0000011c 	andeq	r0, r0, ip, lsl r1
    12c8:	04501f00 	ldrbeq	r1, [r0], #-3840	; 0xf00
    12cc:	90010000 	andls	r0, r1, r0
    12d0:	0f010102 	svceq	0x00010102
    12d4:	1a000004 	bne	12ec <_monitor_vecs-0xfffd14>
    12d8:	0067736d 	rsbeq	r7, r7, sp, ror #6
    12dc:	b0029001 	andlt	r9, r2, r1
    12e0:	1e000002 	cdpne	0, 0, cr0, cr0, cr2, {0}
    12e4:	92010077 	andls	r0, r1, #119	; 0x77
    12e8:	0002b002 	andeq	fp, r2, r2
    12ec:	00721e00 	rsbseq	r1, r2, r0, lsl #28
    12f0:	b0029201 	andlt	r9, r2, r1, lsl #4
    12f4:	20000002 	andcs	r0, r0, r2
    12f8:	0100761e 	tsteq	r0, lr, lsl r6
    12fc:	00300295 	mlaseq	r0, r5, r2, r0
    1300:	00000000 	andeq	r0, r0, r0
    1304:	00034f19 	andeq	r4, r3, r9, lsl pc
    1308:	02850100 	addeq	r0, r5, #0
    130c:	00043801 	andeq	r3, r4, r1, lsl #16
    1310:	04380100 	ldrteq	r0, [r8], #-256	; 0x100
    1314:	6d1a0000 	ldcvs	0, cr0, [sl]
    1318:	01006773 	tsteq	r0, r3, ror r7
    131c:	00250285 	eoreq	r0, r5, r5, lsl #5
    1320:	6d1e0000 	ldcvs	0, cr0, [lr]
    1324:	02870100 	addeq	r0, r7, #0
    1328:	00000037 	andeq	r0, r0, r7, lsr r0
    132c:	3e040200 	cdpcc	2, 0, cr0, cr4, cr0, {0}
    1330:	03000004 	movweq	r0, #4
    1334:	0000017f 	andeq	r0, r0, pc, ror r1
    1338:	0004c215 	andeq	ip, r4, r5, lsl r2
    133c:	01470100 	mrseq	r0, (UNDEF: 87)
    1340:	00047d03 	andeq	r7, r4, r3, lsl #26
    1344:	05971600 	ldreq	r1, [r7, #1536]	; 0x600
    1348:	47010000 	strmi	r0, [r1, -r0]
    134c:	0000003e 	andeq	r0, r0, lr, lsr r0
    1350:	6e656c17 	mcrvs	12, 3, r6, cr5, cr7, {0}
    1354:	d0470100 	suble	r0, r7, r0, lsl #2
    1358:	1d000000 	stcne	0, cr0, [r0]
    135c:	0000015b 	andeq	r0, r0, fp, asr r1
    1360:	003e4901 	eorseq	r4, lr, r1, lsl #18
    1364:	651c0000 	ldrvs	r0, [ip]
    1368:	0100646e 	tsteq	r0, lr, ror #8
    136c:	00003e49 	andeq	r3, r0, r9, asr #28
    1370:	63180000 	tstvs	r8, #0
    1374:	01000005 	tsteq	r0, r5
    1378:	02440166 	subeq	r0, r4, #-2147483623	; 0x80000019
    137c:	a3010000 	movwge	r0, #4096	; 0x1000
    1380:	16000004 	strne	r0, [r0], -r4
    1384:	00000597 	muleq	r0, r7, r5
    1388:	01796601 	cmneq	r9, r1, lsl #12
    138c:	6d1c0000 	ldcvs	0, cr0, [ip]
    1390:	37680100 	strbcc	r0, [r8, -r0, lsl #2]!
    1394:	00000000 	andeq	r0, r0, r0
    1398:	0005b518 	andeq	fp, r5, r8, lsl r5
    139c:	015b0100 	cmpeq	fp, r0, lsl #2
    13a0:	00000244 	andeq	r0, r0, r4, asr #4
    13a4:	0004be01 	andeq	fp, r4, r1, lsl #28
    13a8:	006d1c00 	rsbeq	r1, sp, r0, lsl #24
    13ac:	00375d01 	eorseq	r5, r7, r1, lsl #26
    13b0:	15000000 	strne	r0, [r0]
    13b4:	000004f6 	strdeq	r0, [r0], -r6
    13b8:	01018201 	tsteq	r1, r1, lsl #4
    13bc:	000004d5 	ldrdeq	r0, [r0], -r5
    13c0:	01006217 	tsteq	r0, r7, lsl r2
    13c4:	00024482 	andeq	r4, r2, r2, lsl #9
    13c8:	ba180000 	blt	6013d0 <_monitor_vecs-0x9ffc30>
    13cc:	01000004 	tsteq	r0, r4
    13d0:	0111019a 			; <UNDEFINED> instruction: 0x0111019a
    13d4:	f0030000 			; <UNDEFINED> instruction: 0xf0030000
    13d8:	17000004 	strne	r0, [r0, -r4]
    13dc:	9a010076 	bls	415bc <_monitor_vecs-0xfbfa44>
    13e0:	00000111 	andeq	r0, r0, r1, lsl r1
    13e4:	03bc1900 			; <UNDEFINED> instruction: 0x03bc1900
    13e8:	c4010000 	strgt	r0, [r1]
    13ec:	00db0101 	sbcseq	r0, fp, r1, lsl #2
    13f0:	23010000 	movwcs	r0, #4096	; 0x1000
    13f4:	1a000005 	bne	1410 <_monitor_vecs-0xfffbf0>
    13f8:	00747364 	rsbseq	r7, r4, r4, ror #6
    13fc:	b001c401 	andlt	ip, r1, r1, lsl #8
    1400:	1a000002 	bne	1410 <_monitor_vecs-0xfffbf0>
    1404:	c4010072 	strgt	r0, [r1], #-114	; 0x72
    1408:	00011101 	andeq	r1, r1, r1, lsl #2
    140c:	006d1e00 	rsbeq	r1, sp, r0, lsl #28
    1410:	3701c601 	strcc	ip, [r1, -r1, lsl #12]
    1414:	00000000 	andeq	r0, r0, r0
    1418:	00040619 	andeq	r0, r4, r9, lsl r6
    141c:	01d10100 	bicseq	r0, r1, r0, lsl #2
    1420:	0000db01 	andeq	sp, r0, r1, lsl #22
    1424:	054c0100 	strbeq	r0, [ip, #-256]	; 0x100
    1428:	641a0000 	ldrvs	r0, [sl]
    142c:	01007473 	tsteq	r0, r3, ror r4
    1430:	02b001d1 	adcseq	r0, r0, #1073741876	; 0x40000034
    1434:	761e0000 	ldrvc	r0, [lr], -r0
    1438:	01d30100 	bicseq	r0, r3, r0, lsl #2
    143c:	00000025 	andeq	r0, r0, r5, lsr #32
    1440:	043e1800 	ldrteq	r1, [lr], #-2048	; 0x800
    1444:	9f010000 	svcls	0x00010000
    1448:	0000ff01 	andeq	pc, r0, r1, lsl #30
    144c:	05670300 	strbeq	r0, [r7, #-768]!	; 0x300
    1450:	76170000 	ldrvc	r0, [r7], -r0
    1454:	ff9f0100 			; <UNDEFINED> instruction: 0xff9f0100
    1458:	00000000 	andeq	r0, r0, r0
    145c:	0003db14 	andeq	sp, r3, r4, lsl fp
    1460:	01560100 	cmpeq	r6, r0, lsl #2
    1464:	05921901 	ldreq	r1, [r2, #2305]	; 0x901
    1468:	82010000 	andhi	r0, r1, #0
    146c:	01c00101 	biceq	r0, r0, r1, lsl #2
    1470:	99010000 	stmdbls	r1, {}	; <UNPREDICTABLE>
    1474:	1a000005 	bne	1490 <_monitor_vecs-0xfffb70>
    1478:	82010070 	andhi	r0, r1, #112	; 0x70
    147c:	00059901 	andeq	r9, r5, r1, lsl #18
    1480:	05971b00 	ldreq	r1, [r7, #2816]	; 0xb00
    1484:	82010000 	andhi	r0, r1, #0
    1488:	00017901 	andeq	r7, r1, r1, lsl #18
    148c:	04020000 	streq	r0, [r2]
    1490:	00000025 	andeq	r0, r0, r5, lsr #32
    1494:	0002c819 	andeq	ip, r2, r9, lsl r8
    1498:	01870100 	orreq	r0, r7, r0, lsl #2
    149c:	0001c001 	andeq	ip, r1, r1
    14a0:	05c80100 	strbeq	r0, [r8, #256]	; 0x100
    14a4:	701a0000 	andsvc	r0, sl, r0
    14a8:	01870100 	orreq	r0, r7, r0, lsl #2
    14ac:	00000599 	muleq	r0, r9, r5
    14b0:	6e656c1a 	mcrvs	12, 3, r6, cr5, cr10, {0}
    14b4:	01870100 	orreq	r0, r7, r0, lsl #2
    14b8:	00000179 	andeq	r0, r0, r9, ror r1
    14bc:	05c81f00 	strbeq	r1, [r8, #3840]	; 0xf00
    14c0:	8c010000 	stchi	0, cr0, [r1], {0}
    14c4:	f7010101 			; <UNDEFINED> instruction: 0xf7010101
    14c8:	1a000005 	bne	14e4 <_monitor_vecs-0xfffb1c>
    14cc:	8c010070 	stchi	0, cr0, [r1], {112}	; 0x70
    14d0:	00059901 	andeq	r9, r5, r1, lsl #18
    14d4:	00621a00 	rsbeq	r1, r2, r0, lsl #20
    14d8:	a3018c01 	movwge	r8, #7169	; 0x1c01
    14dc:	1e000003 	cdpne	0, 0, cr0, cr0, cr3, {0}
    14e0:	00667562 	rsbeq	r7, r6, r2, ror #10
    14e4:	a9018e01 	stmdbge	r1, {r0, r9, sl, fp, pc}
    14e8:	00000003 	andeq	r0, r0, r3
    14ec:	00050619 	andeq	r0, r5, r9, lsl r6
    14f0:	010f0100 	mrseq	r0, (UNDEF: 31)
    14f4:	0001c001 	andeq	ip, r1, r1
    14f8:	06160100 	ldreq	r0, [r6], -r0, lsl #2
    14fc:	4a210000 	bmi	841504 <_monitor_vecs-0x7bfafc>
    1500:	01000003 	tsteq	r0, r3
    1504:	06160111 			; <UNDEFINED> instruction: 0x06160111
    1508:	03000000 	movweq	r0, #0
    150c:	00000365 	andeq	r0, r0, r5, ror #6
    1510:	00052122 	andeq	r2, r5, r2, lsr #2
    1514:	02de0100 	sbcseq	r0, lr, #0
    1518:	73230101 	teqvc	r3, #1073741824	; 0x40000000
    151c:	01000003 	tsteq	r0, r3
    1520:	01c001e1 	biceq	r0, r0, r1, ror #3
    1524:	3a1c0000 	bcc	70152c <_monitor_vecs-0x8ffad4>
    1528:	3af80100 	bcc	ffe01930 <__bug_end+0xfedfb9ac>
    152c:	053d0100 	ldreq	r0, [sp, #-256]!	; 0x100
    1530:	06e60000 	strbteq	r0, [r6], r0
    1534:	6d240000 	stcvs	0, cr0, [r4]
    1538:	01006773 	tsteq	r0, r3, ror r7
    153c:	000025e1 	andeq	r2, r0, r1, ror #11
    1540:	00056a00 	andeq	r6, r5, r0, lsl #20
    1544:	656c2400 	strbvs	r2, [ip, #-1024]!	; 0x400
    1548:	e101006e 	tst	r1, lr, rrx
    154c:	000000d0 	ldrdeq	r0, [r0], -r0	; <UNPREDICTABLE>
    1550:	00000589 	andeq	r0, r0, r9, lsl #11
    1554:	78667025 	stmdavc	r6!, {r0, r2, r5, ip, sp, lr}^
    1558:	30e30100 	rsccc	r0, r3, r0, lsl #2
    155c:	02000000 	andeq	r0, r0, #0
    1560:	6e267f73 	mcrvs	15, 1, r7, cr6, cr3, {3}
    1564:	01000003 	tsteq	r0, r3
    1568:	000365e4 	andeq	r6, r3, r4, ror #11
    156c:	58910200 	ldmpl	r1, {r9}
    1570:	63657625 	cmnvs	r5, #38797312	; 0x2500000
    1574:	e6e50100 	strbt	r0, [r5], r0, lsl #2
    1578:	02000006 	andeq	r0, r0, #6
    157c:	63274091 	teqvs	r7, #145	; 0x91
    1580:	edea0100 	stfe	f0, [sl]
    1584:	a8000000 	stmdage	r0, {}	; <UNPREDICTABLE>
    1588:	27000005 	strcs	r0, [r0, -r5]
    158c:	eb01006d 	bl	41748 <_monitor_vecs-0xfbf8b8>
    1590:	00000037 	andeq	r0, r0, r7, lsr r0
    1594:	000005c7 	andeq	r0, r0, r7, asr #11
    1598:	0002d328 	andeq	sp, r2, r8, lsr #6
    159c:	003aa800 	eorseq	sl, sl, r0, lsl #16
    15a0:	003aec01 	eorseq	lr, sl, r1, lsl #24
    15a4:	29f20101 	ldmibcs	r2!, {r0, r8}^
    15a8:	000002ef 	andeq	r0, r0, pc, ror #5
    15ac:	02e42a03 	rsceq	r2, r4, #12288	; 0x3000
    15b0:	5d010000 	stcpl	0, cr0, [r1]
    15b4:	003aa82b 	eorseq	sl, sl, fp, lsr #16
    15b8:	003aec01 	eorseq	lr, sl, r1, lsl #24
    15bc:	02fa2c01 	rscseq	r2, sl, #256	; 0x100
    15c0:	05e60000 	strbeq	r0, [r6]!
    15c4:	032c0000 	teqeq	ip, #0
    15c8:	f9000003 			; <UNDEFINED> instruction: 0xf9000003
    15cc:	2c000005 	stccs	0, cr0, [r0], {5}
    15d0:	0000030c 	andeq	r0, r0, ip, lsl #6
    15d4:	0000062f 	andeq	r0, r0, pc, lsr #12
    15d8:	0a000000 	beq	15e0 <_monitor_vecs-0xfffa20>
    15dc:	00000127 	andeq	r0, r0, r7, lsr #2
    15e0:	000006f6 	strdeq	r0, [r0], -r6
    15e4:	0000370b 	andeq	r3, r0, fp, lsl #14
    15e8:	2d000200 	sfmcs	f0, 4, [r0]
    15ec:	0000049e 	muleq	r0, lr, r4
    15f0:	01023101 	tsteq	r2, r1, lsl #2
    15f4:	000001c0 	andeq	r0, r0, r0, asr #3
    15f8:	01003af8 	strdeq	r3, [r0, -r8]
    15fc:	01003b44 	tsteq	r0, r4, asr #22
    1600:	00000659 	andeq	r0, r0, r9, asr r6
    1604:	00000743 	andeq	r0, r0, r3, asr #14
    1608:	0005522e 	andeq	r5, r5, lr, lsr #4
    160c:	02310100 	eorseq	r0, r1, #0
    1610:	000001c7 	andeq	r0, r0, r7, asr #3
    1614:	00000685 	andeq	r0, r0, r5, lsl #13
    1618:	67736d2f 	ldrbvs	r6, [r3, -pc, lsr #26]!
    161c:	02310100 	eorseq	r0, r1, #0
    1620:	00000025 	andeq	r0, r0, r5, lsr #32
    1624:	00000698 	muleq	r0, r8, r6
    1628:	00034a30 	andeq	r4, r3, r0, lsr sl
    162c:	02330100 	eorseq	r0, r3, #0
    1630:	00000743 	andeq	r0, r0, r3, asr #14
    1634:	00749102 	rsbseq	r9, r4, r2, lsl #2
    1638:	0003a903 	andeq	sl, r3, r3, lsl #18
    163c:	04ce2d00 	strbeq	r2, [lr], #3328	; 0xd00
    1640:	2a010000 	bcs	41648 <_monitor_vecs-0xfbf9b8>
    1644:	01c00102 	biceq	r0, r0, r2, lsl #2
    1648:	3b440000 	blcc	1101650 <__bug_end+0xfb6cc>
    164c:	3b740100 	blcc	1d01a54 <__bug_end+0xcfbad0>
    1650:	06ab0100 	strteq	r0, [fp], r0, lsl #2
    1654:	07950000 	ldreq	r0, [r5, r0]
    1658:	522e0000 	eorpl	r0, lr, #0
    165c:	01000005 	tsteq	r0, r5
    1660:	01c7022a 	biceq	r0, r7, sl, lsr #4
    1664:	06d70000 	ldrbeq	r0, [r7], r0
    1668:	6d2f0000 	stcvs	0, cr0, [pc]	; 1670 <_monitor_vecs-0xfff990>
    166c:	01006773 	tsteq	r0, r3, ror r7
    1670:	0025022a 	eoreq	r0, r5, sl, lsr #4
    1674:	06ea0000 	strbteq	r0, [sl], r0
    1678:	4a300000 	bmi	c01680 <_monitor_vecs-0x3ff980>
    167c:	01000003 	tsteq	r0, r3
    1680:	07a5022c 	streq	r0, [r5, ip, lsr #4]!
    1684:	91020000 	mrsls	r0, (UNDEF: 2)
    1688:	300a0074 	andcc	r0, sl, r4, ror r0
    168c:	a5000000 	strge	r0, [r0]
    1690:	0b000007 	bleq	16b4 <_monitor_vecs-0xfff94c>
    1694:	00000037 	andeq	r0, r0, r7, lsr r0
    1698:	95030001 	strls	r0, [r3, #-1]
    169c:	2d000007 	stccs	0, cr0, [r0, #-28]	; 0xffffffe4
    16a0:	000002b1 			; <UNDEFINED> instruction: 0x000002b1
    16a4:	01022301 	tsteq	r2, r1, lsl #6
    16a8:	000001c0 	andeq	r0, r0, r0, asr #3
    16ac:	01003b74 	tsteq	r0, r4, ror fp
    16b0:	01003bb0 			; <UNDEFINED> instruction: 0x01003bb0
    16b4:	000006fd 	strdeq	r0, [r0], -sp
    16b8:	000007f7 	strdeq	r0, [r0], -r7
    16bc:	0005522e 	andeq	r5, r5, lr, lsr #4
    16c0:	02230100 	eoreq	r0, r3, #0
    16c4:	000001c7 	andeq	r0, r0, r7, asr #3
    16c8:	00000729 	andeq	r0, r0, r9, lsr #14
    16cc:	67736d2f 	ldrbvs	r6, [r3, -pc, lsr #26]!
    16d0:	02230100 	eoreq	r0, r3, #0
    16d4:	00000025 	andeq	r0, r0, r5, lsr #32
    16d8:	0000073c 	andeq	r0, r0, ip, lsr r7
    16dc:	00034a30 	andeq	r4, r3, r0, lsr sl
    16e0:	02250100 	eoreq	r0, r5, #0
    16e4:	00000807 	andeq	r0, r0, r7, lsl #16
    16e8:	00689102 	rsbeq	r9, r8, r2, lsl #2
    16ec:	0000300a 	andeq	r3, r0, sl
    16f0:	00080700 	andeq	r0, r8, r0, lsl #14
    16f4:	00370b00 	eorseq	r0, r7, r0, lsl #22
    16f8:	000d0000 	andeq	r0, sp, r0
    16fc:	0007f703 	andeq	pc, r7, r3, lsl #14
    1700:	033e2d00 	teqeq	lr, #0
    1704:	41010000 	mrsmi	r0, (UNDEF: 1)
    1708:	01c00101 	biceq	r0, r0, r1, lsl #2
    170c:	3bb00000 	blcc	fec01714 <__bug_end+0xfdbfb790>
    1710:	3be40100 	blcc	ff901b18 <__bug_end+0xfe8fbb94>
    1714:	074f0100 	strbeq	r0, [pc, -r0, lsl #2]
    1718:	08590000 	ldmdaeq	r9, {}^	; <UNPREDICTABLE>
    171c:	522e0000 	eorpl	r0, lr, #0
    1720:	01000005 	tsteq	r0, r5
    1724:	01c70141 	biceq	r0, r7, r1, asr #2
    1728:	077b0000 	ldrbeq	r0, [fp, -r0]!
    172c:	6d2f0000 	stcvs	0, cr0, [pc]	; 1734 <_monitor_vecs-0xfff8cc>
    1730:	01006773 	tsteq	r0, r3, ror r7
    1734:	00250141 	eoreq	r0, r5, r1, asr #2
    1738:	078e0000 	streq	r0, [lr, r0]
    173c:	4a300000 	bmi	c01744 <_monitor_vecs-0x3ff8bc>
    1740:	01000003 	tsteq	r0, r3
    1744:	08590143 	ldmdaeq	r9, {r0, r1, r6, r8}^
    1748:	91020000 	mrsls	r0, (UNDEF: 2)
    174c:	65030074 	strvs	r0, [r3, #-116]	; 0x74
    1750:	2d000003 	stccs	0, cr0, [r0, #-12]
    1754:	00000539 	andeq	r0, r0, r9, lsr r5
    1758:	01013a01 	tsteq	r1, r1, lsl #20
    175c:	000001c0 	andeq	r0, r0, r0, asr #3
    1760:	01003be4 	smlatteq	r0, r4, fp, r3
    1764:	01003c2c 	tsteq	r0, ip, lsr #24
    1768:	000007a1 	andeq	r0, r0, r1, lsr #15
    176c:	000008ab 	andeq	r0, r0, fp, lsr #17
    1770:	0005522e 	andeq	r5, r5, lr, lsr #4
    1774:	013a0100 	teqeq	sl, r0, lsl #2
    1778:	000001c7 	andeq	r0, r0, r7, asr #3
    177c:	000007cd 	andeq	r0, r0, sp, asr #15
    1780:	67736d2f 	ldrbvs	r6, [r3, -pc, lsr #26]!
    1784:	013a0100 	teqeq	sl, r0, lsl #2
    1788:	00000025 	andeq	r0, r0, r5, lsr #32
    178c:	000007e0 	andeq	r0, r0, r0, ror #15
    1790:	00034a30 	andeq	r4, r3, r0, lsr sl
    1794:	013c0100 	teqeq	ip, r0, lsl #2
    1798:	000008bb 			; <UNDEFINED> instruction: 0x000008bb
    179c:	00509102 	subseq	r9, r0, r2, lsl #2
    17a0:	0000300a 	andeq	r3, r0, sl
    17a4:	0008bb00 	andeq	fp, r8, r0, lsl #22
    17a8:	00370b00 	eorseq	r0, r7, r0, lsl #22
    17ac:	00270000 	eoreq	r0, r7, r0
    17b0:	0008ab03 	andeq	sl, r8, r3, lsl #22
    17b4:	03b02d00 	movseq	r2, #0
    17b8:	0b010000 	bleq	417c0 <_monitor_vecs-0xfbf840>
    17bc:	01c00102 	biceq	r0, r0, r2, lsl #2
    17c0:	3c2c0000 	stccc	0, cr0, [ip]
    17c4:	3c940100 	ldfccs	f0, [r4], {0}
    17c8:	07f30100 	ldrbeq	r0, [r3, r0, lsl #2]!
    17cc:	090c0000 	stmdbeq	ip, {}	; <UNPREDICTABLE>
    17d0:	522e0000 	eorpl	r0, lr, #0
    17d4:	01000005 	tsteq	r0, r5
    17d8:	01c7020b 	biceq	r0, r7, fp, lsl #4
    17dc:	08130000 	ldmdaeq	r3, {}	; <UNPREDICTABLE>
    17e0:	6d2f0000 	stcvs	0, cr0, [pc]	; 17e8 <_monitor_vecs-0xfff818>
    17e4:	01006773 	tsteq	r0, r3, ror r7
    17e8:	0025020b 	eoreq	r0, r5, fp, lsl #4
    17ec:	08260000 	stmdaeq	r6!, {}	; <UNPREDICTABLE>
    17f0:	70310000 	eorsvc	r0, r1, r0
    17f4:	020d0100 	andeq	r0, sp, #0
    17f8:	00000025 	andeq	r0, r0, r5, lsr #32
    17fc:	00000844 	andeq	r0, r0, r4, asr #16
    1800:	04b12d00 	ldrteq	r2, [r1], #3328	; 0xd00
    1804:	48010000 	stmdami	r1, {}	; <UNPREDICTABLE>
    1808:	003e0101 	eorseq	r0, lr, r1, lsl #2
    180c:	3c940000 	ldccc	0, cr0, [r4], {0}
    1810:	3cec0100 	stfcce	f0, [ip]
    1814:	088b0100 	stmeq	fp, {r8}
    1818:	09700000 	ldmdbeq	r0!, {}^	; <UNPREDICTABLE>
    181c:	702f0000 	eorvc	r0, pc, r0
    1820:	01480100 	mrseq	r0, (UNDEF: 88)
    1824:	00000025 	andeq	r0, r0, r5, lsr #32
    1828:	000008ab 	andeq	r0, r0, fp, lsr #17
    182c:	00047b2e 	andeq	r7, r4, lr, lsr #22
    1830:	01480100 	mrseq	r0, (UNDEF: 88)
    1834:	00000970 	andeq	r0, r0, r0, ror r9
    1838:	000008df 	ldrdeq	r0, [r0], -pc	; <UNPREDICTABLE>
    183c:	01007631 	tsteq	r0, r1, lsr r6
    1840:	003e014a 	eorseq	r0, lr, sl, asr #2
    1844:	08fd0000 	ldmeq	sp!, {}^	; <UNPREDICTABLE>
    1848:	b6320000 	ldrtlt	r0, [r2], -r0
    184c:	b0000002 	andlt	r0, r0, r2
    1850:	c401003c 	strgt	r0, [r1], #-60	; 0x3c
    1854:	0101003c 	tsteq	r1, ip, lsr r0
    1858:	c833014e 	ldmdagt	r3!, {r1, r2, r3, r6, r8}
    185c:	32000002 	andcc	r0, r0, #2
    1860:	00000009 	andeq	r0, r0, r9
    1864:	b0040200 	andlt	r0, r4, r0, lsl #4
    1868:	2d000002 	stccs	0, cr0, [r0, #-8]
    186c:	000002e0 	andeq	r0, r0, r0, ror #5
    1870:	01017201 	tsteq	r1, r1, lsl #4
    1874:	000001c0 	andeq	r0, r0, r0, asr #3
    1878:	01003cec 	smlatteq	r0, ip, ip, r3
    187c:	01003d48 	tsteq	r0, r8, asr #26
    1880:	00000945 	andeq	r0, r0, r5, asr #18
    1884:	000009e2 	andeq	r0, r0, r2, ror #19
    1888:	0100702f 	tsteq	r0, pc, lsr #32
    188c:	05990172 	ldreq	r0, [r9, #370]	; 0x172
    1890:	09710000 	ldmdbeq	r1!, {}^	; <UNPREDICTABLE>
    1894:	642f0000 	strtvs	r0, [pc], #0	; 189c <_monitor_vecs-0xfff764>
    1898:	01007473 	tsteq	r0, r3, ror r4
    189c:	01790172 	cmneq	r9, r2, ror r1
    18a0:	098f0000 	stmibeq	pc, {}	; <UNPREDICTABLE>
    18a4:	972e0000 	strls	r0, [lr, -r0]!
    18a8:	01000003 	tsteq	r0, r3
    18ac:	00300172 	eorseq	r0, r0, r2, ror r1
    18b0:	09ad0000 	stmibeq	sp!, {}	; <UNPREDICTABLE>
    18b4:	64310000 	ldrtvs	r0, [r1]
    18b8:	01006c65 	tsteq	r0, r5, ror #24
    18bc:	00250174 	eoreq	r0, r5, r4, ror r1
    18c0:	09c00000 	stmibeq	r0, {}^	; <UNPREDICTABLE>
    18c4:	7b340000 	blvc	d018cc <_monitor_vecs-0x2ff734>
    18c8:	01000004 	tsteq	r0, r4
    18cc:	02b00175 	adcseq	r0, r0, #1073741853	; 0x4000001d
    18d0:	09de0000 	ldmibeq	lr, {}^	; <UNPREDICTABLE>
    18d4:	2d000000 	stccs	0, cr0, [r0]
    18d8:	00000416 	andeq	r0, r0, r6, lsl r4
    18dc:	01025801 	tsteq	r2, r1, lsl #16
    18e0:	000001c0 	andeq	r0, r0, r0, asr #3
    18e4:	01003d48 	tsteq	r0, r8, asr #26
    18e8:	01003db8 			; <UNDEFINED> instruction: 0x01003db8
    18ec:	000009fe 	strdeq	r0, [r0], -lr
    18f0:	00000a55 	andeq	r0, r0, r5, asr sl
    18f4:	67736d2f 	ldrbvs	r6, [r3, -pc, lsr #26]!
    18f8:	02580100 	subseq	r0, r8, #0
    18fc:	00000025 	andeq	r0, r0, r5, lsr #32
    1900:	00000a2a 	andeq	r0, r0, sl, lsr #20
    1904:	00706f2f 	rsbseq	r6, r0, pc, lsr #30
    1908:	65025801 	strvs	r5, [r2, #-2049]	; 0x801
    190c:	4a00000a 	bmi	193c <_monitor_vecs-0xfff6c4>
    1910:	3000000a 	andcc	r0, r0, sl
    1914:	00000597 	muleq	r0, r7, r5
    1918:	11025a01 	tstne	r2, r1, lsl #20
    191c:	02000001 	andeq	r0, r0, #1
    1920:	70356c91 	mlasvc	r5, r1, ip, r6
    1924:	025b0100 	subseq	r0, fp, #0
    1928:	00000025 	andeq	r0, r0, r5, lsr #32
    192c:	30787002 	rsbscc	r7, r8, r2
    1930:	0000034a 	andeq	r0, r0, sl, asr #6
    1934:	25025c01 	strcs	r5, [r2, #-3073]	; 0xc01
    1938:	01000000 	mrseq	r0, (UNDEF: 0)
    193c:	756f3654 	strbvc	r3, [pc, #-1620]!	; 12f0 <_monitor_vecs-0xfffd10>
    1940:	66010074 			; <UNDEFINED> instruction: 0x66010074
    1944:	003d9402 	eorseq	r9, sp, r2, lsl #8
    1948:	01110001 	tsteq	r1, r1
    194c:	000001c0 	andeq	r0, r0, r0, asr #3
    1950:	00000a65 	andeq	r0, r0, r5, ror #20
    1954:	00017912 	andeq	r7, r1, r2, lsl r9
    1958:	04020000 	streq	r0, [r2]
    195c:	00000a55 	andeq	r0, r0, r5, asr sl
    1960:	0004a537 	andeq	sl, r4, r7, lsr r5
    1964:	026a0100 	rsbeq	r0, sl, #0
    1968:	0001c001 	andeq	ip, r1, r1
    196c:	003db800 	eorseq	fp, sp, r0, lsl #16
    1970:	003dc801 	eorseq	ip, sp, r1, lsl #16
    1974:	007d0201 	rsbseq	r0, sp, r1, lsl #4
    1978:	00000aa8 	andeq	r0, r0, r8, lsr #21
    197c:	0005522e 	andeq	r5, r5, lr, lsr #4
    1980:	026a0100 	rsbeq	r0, sl, #0
    1984:	000001c7 	andeq	r0, r0, r7, asr #3
    1988:	00000a68 	andeq	r0, r0, r8, ror #20
    198c:	67736d2f 	ldrbvs	r6, [r3, -pc, lsr #26]!
    1990:	026a0100 	rsbeq	r0, sl, #0
    1994:	00000025 	andeq	r0, r0, r5, lsr #32
    1998:	00000a7b 	andeq	r0, r0, fp, ror sl
    199c:	05573700 	ldrbeq	r3, [r7, #-1792]	; 0x700
    19a0:	6f010000 	svcvs	0x00010000
    19a4:	01c00102 	biceq	r0, r0, r2, lsl #2
    19a8:	3dc80000 	stclcc	0, cr0, [r8]
    19ac:	3dd80100 	ldfcce	f0, [r8]
    19b0:	7d020100 	stfvcs	f0, [r2]
    19b4:	000ae500 	andeq	lr, sl, r0, lsl #10
    19b8:	05522e00 	ldrbeq	r2, [r2, #-3584]	; 0xe00
    19bc:	6f010000 	svcvs	0x00010000
    19c0:	0001c702 	andeq	ip, r1, r2, lsl #14
    19c4:	000a9900 	andeq	r9, sl, r0, lsl #18
    19c8:	736d2f00 	cmnvc	sp, #0
    19cc:	6f010067 	svcvs	0x00010067
    19d0:	00002502 	andeq	r2, r0, r2, lsl #10
    19d4:	000aac00 	andeq	sl, sl, r0, lsl #24
    19d8:	f8380000 			; <UNDEFINED> instruction: 0xf8380000
    19dc:	01000004 	tsteq	r0, r4
    19e0:	3dd80176 	ldfcce	f0, [r8, #472]	; 0x1d8
    19e4:	3e480100 	dvfcce	f0, f0, f0
    19e8:	0aca0100 	beq	ff281df0 <__bug_end+0xfe27be6c>
    19ec:	0bbd0000 	bleq	fef419f4 <__bug_end+0xfdf3ba70>
    19f0:	62240000 	eorvs	r0, r4, #0
    19f4:	44760100 	ldrbtmi	r0, [r6], #-256	; 0x100
    19f8:	f6000002 			; <UNDEFINED> instruction: 0xf6000002
    19fc:	2600000a 	strcs	r0, [r0], -sl
    1a00:	000003e3 	andeq	r0, r0, r3, ror #7
    1a04:	01117801 	tsteq	r1, r1, lsl #16
    1a08:	91020000 	mrsls	r0, (UNDEF: 2)
    1a0c:	0443286c 	strbeq	r2, [r3], #-2156	; 0x86c
    1a10:	3e1c0000 	cdpcc	0, 1, cr0, cr12, cr0, {0}
    1a14:	3e3c0100 	rsfcce	f0, f4, f0
    1a18:	7f010100 	svcvc	0x00010100
    1a1c:	00045b33 	andeq	r5, r4, r3, lsr fp
    1a20:	000b1400 	andeq	r1, fp, r0, lsl #8
    1a24:	04503300 	ldrbeq	r3, [r0], #-768	; 0x300
    1a28:	0b280000 	bleq	a01a30 <_monitor_vecs-0x5ff5d0>
    1a2c:	1c2b0000 	stcne	0, cr0, [fp]
    1a30:	3c01003e 	stccc	0, cr0, [r1], {62}	; 0x3e
    1a34:	2c01003e 	stccs	0, cr0, [r1], {62}	; 0x3e
    1a38:	00000466 	andeq	r0, r0, r6, ror #8
    1a3c:	00000b3c 	andeq	r0, r0, ip, lsr fp
    1a40:	0004712c 	andeq	r7, r4, ip, lsr #2
    1a44:	000b5b00 	andeq	r5, fp, r0, lsl #22
    1a48:	01d33900 	bicseq	r3, r3, r0, lsl #18
    1a4c:	3e1c0000 	cdpcc	0, 1, cr0, cr12, cr0, {0}
    1a50:	02400100 	subeq	r0, r0, #0
    1a54:	4e010000 	cdpmi	0, 0, cr0, cr1, cr0, {0}
    1a58:	0001dc3a 	andeq	sp, r1, sl, lsr ip
    1a5c:	003e3000 	eorseq	r3, lr, r0
    1a60:	003e3401 	eorseq	r3, lr, r1, lsl #8
    1a64:	3b4f0101 	blcc	13c1e70 <__bug_end+0x3bbeec>
    1a68:	000001e5 	andeq	r0, r0, r5, ror #3
    1a6c:	01003e34 	tsteq	r0, r4, lsr lr
    1a70:	01003e38 	tsteq	r0, r8, lsr lr
    1a74:	0b985001 	bleq	fe615a80 <__bug_end+0xfd60fafc>
    1a78:	fd330000 	ldc2	0, cr0, [r3]
    1a7c:	79000001 	stmdbvc	r0, {r0}
    1a80:	3300000b 	movwcc	r0, #11
    1a84:	000001f2 	strdeq	r0, [r0], -r2
    1a88:	00000b8c 	andeq	r0, r0, ip, lsl #23
    1a8c:	02092800 	andeq	r2, r9, #0
    1a90:	3e380000 	cdpcc	0, 3, cr0, cr8, cr0, {0}
    1a94:	3e3c0100 	rsfcce	f0, f4, f0
    1a98:	51010100 	mrspl	r0, (UNDEF: 17)
    1a9c:	00022133 	andeq	r2, r2, r3, lsr r1
    1aa0:	000b9f00 	andeq	r9, fp, r0, lsl #30
    1aa4:	02163300 	andseq	r3, r6, #0
    1aa8:	0bb20000 	bleq	fec81ab0 <__bug_end+0xfdc7bb2c>
    1aac:	00000000 	andeq	r0, r0, r0
    1ab0:	442d0000 	strtmi	r0, [sp]
    1ab4:	01000005 	tsteq	r0, r5
    1ab8:	c001023a 	andgt	r0, r1, sl, lsr r2
    1abc:	48000001 	stmdami	r0, {r0}
    1ac0:	d801003e 	stmdale	r1, {r1, r2, r3, r4, r5}
    1ac4:	c501003e 	strgt	r0, [r1, #-62]	; 0x3e
    1ac8:	4300000b 	movwmi	r0, #11
    1acc:	2e00000c 	cdpcs	0, 0, cr0, cr0, cr12, {0}
    1ad0:	00000597 	muleq	r0, r7, r5
    1ad4:	79023a01 	stmdbvc	r2, {r0, r9, fp, ip, sp}
    1ad8:	e5000001 	str	r0, [r0, #-1]
    1adc:	1e00000b 	cdpne	0, 0, cr0, cr0, cr11, {0}
    1ae0:	01007062 	tsteq	r0, r2, rrx
    1ae4:	0244023c 	subeq	r0, r4, #-1073741821	; 0xc0000003
    1ae8:	7d3c0000 	ldcvc	0, cr0, [ip]
    1aec:	58000004 	stmdapl	r0, {r2}
    1af0:	5801003e 	stmdapl	r1, {r1, r2, r3, r4, r5}
    1af4:	01000002 	tsteq	r0, r2
    1af8:	0c22023c 	sfmeq	f0, 4, [r2], #-240	; 0xffffff10
    1afc:	8e330000 	cdphi	0, 3, cr0, cr3, cr0, {0}
    1b00:	1a000004 	bne	1b18 <_monitor_vecs-0xfff4e8>
    1b04:	3d00000c 	stccc	0, cr0, [r0, #-48]	; 0xffffffd0
    1b08:	00000270 	andeq	r0, r0, r0, ror r2
    1b0c:	0004992c 	andeq	r9, r4, ip, lsr #18
    1b10:	000c4f00 	andeq	r4, ip, r0, lsl #30
    1b14:	3e000000 	cdpcc	0, 0, cr0, cr0, cr0, {0}
    1b18:	000004a3 	andeq	r0, r0, r3, lsr #9
    1b1c:	01003e90 			; <UNDEFINED> instruction: 0x01003e90
    1b20:	00000288 	andeq	r0, r0, r8, lsl #5
    1b24:	3d024301 	stccc	3, cr4, [r2, #-4]
    1b28:	000002a0 	andeq	r0, r0, r0, lsr #5
    1b2c:	0004b42c 	andeq	fp, r4, ip, lsr #8
    1b30:	000c7900 	andeq	r7, ip, r0, lsl #18
    1b34:	00000000 	andeq	r0, r0, r0
    1b38:	00056d2d 	andeq	r6, r5, sp, lsr #26
    1b3c:	024b0100 	subeq	r0, fp, #0
    1b40:	0001c001 	andeq	ip, r1, r1
    1b44:	003ed800 	eorseq	sp, lr, r0, lsl #16
    1b48:	003f5c01 	eorseq	r5, pc, r1, lsl #24
    1b4c:	000c9701 	andeq	r9, ip, r1, lsl #14
    1b50:	000d7700 	andeq	r7, sp, r0, lsl #14
    1b54:	05972e00 	ldreq	r2, [r7, #3584]	; 0xe00
    1b58:	4b010000 	blmi	41b60 <_monitor_vecs-0xfbf4a0>
    1b5c:	00017902 	andeq	r7, r1, r2, lsl #18
    1b60:	000cb700 	andeq	fp, ip, r0, lsl #14
    1b64:	70621e00 	rsbvc	r1, r2, r0, lsl #28
    1b68:	024d0100 	subeq	r0, sp, #0
    1b6c:	00000244 	andeq	r0, r0, r4, asr #4
    1b70:	00047d3c 	andeq	r7, r4, ip, lsr sp
    1b74:	003ee800 	eorseq	lr, lr, r0, lsl #16
    1b78:	0002b801 	andeq	fp, r2, r1, lsl #16
    1b7c:	024d0100 	subeq	r0, sp, #0
    1b80:	00000ca8 	andeq	r0, r0, r8, lsr #25
    1b84:	00048e33 	andeq	r8, r4, r3, lsr lr
    1b88:	000cd500 	andeq	sp, ip, r0, lsl #10
    1b8c:	02d03d00 	sbcseq	r3, r0, #0
    1b90:	992c0000 	stmdbls	ip!, {}	; <UNPREDICTABLE>
    1b94:	f3000004 	vhadd.u8	d0, d0, d4
    1b98:	0000000c 	andeq	r0, r0, ip
    1b9c:	04be3f00 	ldrteq	r3, [lr], #3840	; 0xf00
    1ba0:	3f0c0000 	svccc	0x000c0000
    1ba4:	3f440100 	svccc	0x00440100
    1ba8:	52010100 	andpl	r0, r1, #0
    1bac:	000d6602 	andeq	r6, sp, r2, lsl #12
    1bb0:	04cb4000 	strbeq	r4, [fp]
    1bb4:	43280000 	teqmi	r8, #0
    1bb8:	24000004 	strcs	r0, [r0], #-4
    1bbc:	4401003f 	strmi	r0, [r1], #-63	; 0x3f
    1bc0:	0101003f 	tsteq	r1, pc, lsr r0
    1bc4:	045b3385 	ldrbeq	r3, [fp], #-901	; 0x385
    1bc8:	0d1d0000 	ldceq	0, cr0, [sp]
    1bcc:	50330000 	eorspl	r0, r3, r0
    1bd0:	31000004 	tstcc	r0, r4
    1bd4:	2b00000d 	blcs	1c10 <_monitor_vecs-0xfff3f0>
    1bd8:	01003f24 	tsteq	r0, r4, lsr #30
    1bdc:	01003f44 	tsteq	r0, r4, asr #30
    1be0:	0004662c 	andeq	r6, r4, ip, lsr #12
    1be4:	000d4500 	andeq	r4, sp, r0, lsl #10
    1be8:	04712c00 	ldrbteq	r2, [r1], #-3072	; 0xc00
    1bec:	0d640000 	stcleq	0, cr0, [r4]
    1bf0:	d3390000 	teqle	r9, #0
    1bf4:	24000001 	strcs	r0, [r0], #-1
    1bf8:	e801003f 	stmda	r1, {r0, r1, r2, r3, r4, r5}
    1bfc:	01000002 	tsteq	r0, r2
    1c00:	01dc3a4e 	bicseq	r3, ip, lr, asr #20
    1c04:	3f380000 	svccc	0x00380000
    1c08:	3f3c0100 	svccc	0x003c0100
    1c0c:	4f010100 	svcmi	0x00010100
    1c10:	0001e53b 	andeq	lr, r1, fp, lsr r5
    1c14:	003f3c00 	eorseq	r3, pc, r0, lsl #24
    1c18:	003f4001 	eorseq	r4, pc, r1
    1c1c:	41500101 	cmpmi	r0, r1, lsl #2
    1c20:	3300000d 	movwcc	r0, #13
    1c24:	000001fd 	strdeq	r0, [r0], -sp
    1c28:	00000d82 	andeq	r0, r0, r2, lsl #27
    1c2c:	0001f233 	andeq	pc, r1, r3, lsr r2	; <UNPREDICTABLE>
    1c30:	000d9500 	andeq	r9, sp, r0, lsl #10
    1c34:	09280000 	stmdbeq	r8!, {}	; <UNPREDICTABLE>
    1c38:	40000002 	andmi	r0, r0, r2
    1c3c:	4401003f 	strmi	r0, [r1], #-63	; 0x3f
    1c40:	0101003f 	tsteq	r1, pc, lsr r0
    1c44:	02213351 	eoreq	r3, r1, #1140850689	; 0x44000001
    1c48:	0da80000 	stceq	0, cr0, [r8]
    1c4c:	16330000 	ldrtne	r0, [r3], -r0
    1c50:	bb000002 	bllt	1c60 <_monitor_vecs-0xfff3a0>
    1c54:	0000000d 	andeq	r0, r0, sp
    1c58:	41000000 	mrsmi	r0, (UNDEF: 0)
    1c5c:	0000022d 	andeq	r0, r0, sp, lsr #4
    1c60:	01003f44 	tsteq	r0, r4, asr #30
    1c64:	01003f48 	tsteq	r0, r8, asr #30
    1c68:	00025301 	andeq	r5, r2, r1, lsl #6
    1c6c:	0003e82d 	andeq	lr, r3, sp, lsr #16
    1c70:	01ed0100 	mvneq	r0, r0, lsl #2
    1c74:	00011101 	andeq	r1, r1, r1, lsl #2
    1c78:	003f5c00 	eorseq	r5, pc, r0, lsl #24
    1c7c:	003f9401 	eorseq	r9, pc, r1, lsl #8
    1c80:	000dce01 	andeq	ip, sp, r1, lsl #28
    1c84:	000db200 	andeq	fp, sp, r0, lsl #4
    1c88:	74732f00 	ldrbtvc	r2, [r3], #-3840	; 0xf00
    1c8c:	ed010072 	stc	0, cr0, [r1, #-456]	; 0xfffffe38
    1c90:	00002501 	andeq	r2, r0, r1, lsl #10
    1c94:	000dfa00 	andeq	pc, sp, r0, lsl #20
    1c98:	00733500 	rsbseq	r3, r3, r0, lsl #10
    1c9c:	b201ef01 	andlt	lr, r1, #4
    1ca0:	0200000d 	andeq	r0, r0, #13
    1ca4:	0a006c91 	beq	1cef0 <_monitor_vecs-0xfe4110>
    1ca8:	00000030 	andeq	r0, r0, r0, lsr r0
    1cac:	00000dc2 	andeq	r0, r0, r2, asr #27
    1cb0:	0000370b 	andeq	r3, r0, fp, lsl #14
    1cb4:	2d000800 	stccs	8, cr0, [r0]
    1cb8:	000002bd 			; <UNDEFINED> instruction: 0x000002bd
    1cbc:	0101f601 	tsteq	r1, r1, lsl #12
    1cc0:	000001c0 	andeq	r0, r0, r0, asr #3
    1cc4:	01003f94 			; <UNDEFINED> instruction: 0x01003f94
    1cc8:	01004010 	tsteq	r0, r0, lsl r0
    1ccc:	00000e18 	andeq	r0, r0, r8, lsl lr
    1cd0:	00000e26 	andeq	r0, r0, r6, lsr #28
    1cd4:	0005522e 	andeq	r5, r5, lr, lsr #4
    1cd8:	01f60100 	mvnseq	r0, r0, lsl #2
    1cdc:	000001c7 	andeq	r0, r0, r7, asr #3
    1ce0:	00000e38 	andeq	r0, r0, r8, lsr lr
    1ce4:	67736d2f 	ldrbvs	r6, [r3, -pc, lsr #26]!
    1ce8:	01f60100 	mvnseq	r0, r0, lsl #2
    1cec:	00000025 	andeq	r0, r0, r5, lsr #32
    1cf0:	00000e56 	andeq	r0, r0, r6, asr lr
    1cf4:	00034a34 	andeq	r4, r3, r4, lsr sl
    1cf8:	01f80100 	mvnseq	r0, r0, lsl #2
    1cfc:	00000025 	andeq	r0, r0, r5, lsr #32
    1d00:	00000e74 	andeq	r0, r0, r4, ror lr
    1d04:	01006d1e 	tsteq	r0, lr, lsl sp
    1d08:	003701f9 	ldrshteq	r0, [r7], -r9
    1d0c:	6f360000 	svcvs	0x00360000
    1d10:	01007475 	tsteq	r0, r5, ror r4
    1d14:	3fb80207 	svccc	0x00b80207
    1d18:	2d000100 	stfcss	f0, [r0]
    1d1c:	0000054d 	andeq	r0, r0, sp, asr #10
    1d20:	0101df01 	tsteq	r1, r1, lsl #30
    1d24:	000001c0 	andeq	r0, r0, r0, asr #3
    1d28:	01004010 	tsteq	r0, r0, lsl r0
    1d2c:	010040c8 	smlabteq	r0, r8, r0, r4
    1d30:	00000e97 	muleq	r0, r7, lr
    1d34:	00000f20 	andeq	r0, r0, r0, lsr #30
    1d38:	0005522e 	andeq	r5, r5, lr, lsr #4
    1d3c:	01df0100 	bicseq	r0, pc, r0, lsl #2
    1d40:	000001c7 	andeq	r0, r0, r7, asr #3
    1d44:	00000eb7 			; <UNDEFINED> instruction: 0x00000eb7
    1d48:	67736d2f 	ldrbvs	r6, [r3, -pc, lsr #26]!
    1d4c:	01df0100 	bicseq	r0, pc, r0, lsl #2
    1d50:	00000025 	andeq	r0, r0, r5, lsr #32
    1d54:	00000ed5 	ldrdeq	r0, [r0], -r5
    1d58:	01006d31 	tsteq	r0, r1, lsr sp
    1d5c:	003701e1 	eorseq	r0, r7, r1, ror #3
    1d60:	0ee80000 	cdpeq	0, 14, cr0, cr8, cr0, {0}
    1d64:	70310000 	eorsvc	r0, r1, r0
    1d68:	01e20100 	mvneq	r0, r0, lsl #2
    1d6c:	000002b0 			; <UNDEFINED> instruction: 0x000002b0
    1d70:	00000efc 	strdeq	r0, [r0], -ip
    1d74:	0004f03f 	andeq	pc, r4, pc, lsr r0	; <UNPREDICTABLE>
    1d78:	00402c00 	subeq	r2, r0, r0, lsl #24
    1d7c:	00404801 	subeq	r4, r0, r1, lsl #16
    1d80:	01e50101 	mvneq	r0, r1, lsl #2
    1d84:	00000eb9 			; <UNDEFINED> instruction: 0x00000eb9
    1d88:	00050e33 	andeq	r0, r5, r3, lsr lr
    1d8c:	000f3a00 	andeq	r3, pc, r0, lsl #20
    1d90:	05023300 	streq	r3, [r2, #-768]	; 0x300
    1d94:	0f640000 	svceq	0x00640000
    1d98:	2c2b0000 	stccs	0, cr0, [fp]
    1d9c:	48010040 	stmdami	r1, {r6}
    1da0:	2c010040 	stccs	0, cr0, [r1], {64}	; 0x40
    1da4:	00000518 	andeq	r0, r0, r8, lsl r5
    1da8:	00000f9a 	muleq	r0, sl, pc	; <UNPREDICTABLE>
    1dac:	233c0000 	teqcs	ip, #0
    1db0:	58000005 	stmdapl	r0, {r0, r2}
    1db4:	00010040 	andeq	r0, r1, r0, asr #32
    1db8:	01000003 	tsteq	r0, r3
    1dbc:	0ee901e7 	cdpeq	1, 14, cr0, cr9, cr7, {7}
    1dc0:	35330000 	ldrcc	r0, [r3]!
    1dc4:	ae000005 	cdpge	0, 0, cr0, cr0, cr5, {0}
    1dc8:	3d00000f 	stccc	0, cr0, [r0, #-60]	; 0xffffffc4
    1dcc:	00000318 	andeq	r0, r0, r8, lsl r3
    1dd0:	00054142 	andeq	r4, r5, r2, asr #2
    1dd4:	6c030600 	stcvs	6, cr0, [r3], {0}
    1dd8:	9f01004a 	svcls	0x0001004a
    1ddc:	f0320000 			; <UNDEFINED> instruction: 0xf0320000
    1de0:	88000004 	stmdahi	r0, {r2}
    1de4:	a4010040 	strge	r0, [r1], #-64	; 0x40
    1de8:	01010040 	tsteq	r1, r0, asr #32
    1dec:	0e3301e8 	rsfeqdz	f0, f3, #0.0
    1df0:	d9000005 	stmdble	r0, {r0, r2}
    1df4:	3300000f 	movwcc	r0, #15
    1df8:	00000502 	andeq	r0, r0, r2, lsl #10
    1dfc:	00001004 	andeq	r1, r0, r4
    1e00:	0040882b 	subeq	r8, r0, fp, lsr #16
    1e04:	0040a401 	subeq	sl, r0, r1, lsl #8
    1e08:	05182c01 	ldreq	r2, [r8, #-3073]	; 0xc01
    1e0c:	10270000 	eorne	r0, r7, r0
    1e10:	00000000 	andeq	r0, r0, r0
    1e14:	46014300 	strmi	r4, [r1], -r0, lsl #6
    1e18:	01000004 	tsteq	r0, r4
    1e1c:	40c80195 	smullmi	r0, r8, r5, r1
    1e20:	40d00100 	sbcsmi	r0, r0, r0, lsl #2
    1e24:	7d020100 	stfvcs	f0, [r2]
    1e28:	18014400 	stmdane	r1, {sl, lr}
    1e2c:	01000005 	tsteq	r0, r5
    1e30:	01c001a4 	biceq	r0, r0, r4, lsr #3
    1e34:	40d00000 	sbcsmi	r0, r0, r0
    1e38:	41380100 	teqmi	r8, r0, lsl #2
    1e3c:	7d020100 	stfvcs	f0, [r2]
    1e40:	000fa000 	andeq	sl, pc, r0
    1e44:	73642400 	cmnvc	r4, #0
    1e48:	a4010074 	strge	r0, [r1], #-116	; 0x74
    1e4c:	00000fa0 	andeq	r0, r0, r0, lsr #31
    1e50:	0000103b 	andeq	r1, r0, fp, lsr r0
    1e54:	00059745 	andeq	r9, r5, r5, asr #14
    1e58:	3ea40100 	fdvccs	f0, f4, f0
    1e5c:	01000000 	mrseq	r0, (UNDEF: 0)
    1e60:	656c2451 	strbvs	r2, [ip, #-1105]!	; 0x451
    1e64:	a401006e 	strge	r0, [r1], #-110	; 0x6e
    1e68:	000000d0 	ldrdeq	r0, [r0], -r0	; <UNPREDICTABLE>
    1e6c:	0000106f 	andeq	r1, r0, pc, rrx
    1e70:	00056739 	andeq	r6, r5, r9, lsr r7
    1e74:	0040f800 	subeq	pc, r0, r0, lsl #16
    1e78:	00033001 	andeq	r3, r3, r1
    1e7c:	28b60100 	ldmcs	r6!, {r8}
    1e80:	0000054c 	andeq	r0, r0, ip, asr #10
    1e84:	01004120 	tsteq	r0, r0, lsr #2
    1e88:	01004128 	tsteq	r0, r8, lsr #2
    1e8c:	5d40ad01 	stclpl	13, cr10, [r0, #-4]
    1e90:	00000005 	andeq	r0, r0, r5
    1e94:	2d044600 	stccs	6, cr4, [r4]
    1e98:	00000514 	andeq	r0, r0, r4, lsl r5
    1e9c:	01015801 	tsteq	r1, r1, lsl #16
    1ea0:	000001c0 	andeq	r0, r0, r0, asr #3
    1ea4:	01004138 	tsteq	r0, r8, lsr r1
    1ea8:	010041e4 	smlatteq	r0, r4, r1, r4
    1eac:	00001082 	andeq	r1, r0, r2, lsl #1
    1eb0:	00001041 	andeq	r1, r0, r1, asr #32
    1eb4:	0005522e 	andeq	r5, r5, lr, lsr #4
    1eb8:	01580100 	cmpeq	r8, r0, lsl #2
    1ebc:	000001c7 	andeq	r0, r0, r7, asr #3
    1ec0:	000010ae 	andeq	r1, r0, lr, lsr #1
    1ec4:	67736d2f 	ldrbvs	r6, [r3, -pc, lsr #26]!
    1ec8:	01580100 	cmpeq	r8, r0, lsl #2
    1ecc:	00000025 	andeq	r0, r0, r5, lsr #32
    1ed0:	000010c1 	andeq	r1, r0, r1, asr #1
    1ed4:	00034a34 	andeq	r4, r3, r4, lsr sl
    1ed8:	015a0100 	cmpeq	sl, r0, lsl #2
    1edc:	000002b0 			; <UNDEFINED> instruction: 0x000002b0
    1ee0:	000010e1 	andeq	r1, r0, r1, ror #1
    1ee4:	00059734 	andeq	r9, r5, r4, lsr r7
    1ee8:	015b0100 	cmpeq	fp, r0, lsl #2
    1eec:	0000003e 	andeq	r0, r0, lr, lsr r0
    1ef0:	0000111c 	andeq	r1, r0, ip, lsl r1
    1ef4:	00047b30 	andeq	r7, r4, r0, lsr fp
    1ef8:	015c0100 	cmpeq	ip, r0, lsl #2
    1efc:	000002b0 			; <UNDEFINED> instruction: 0x000002b0
    1f00:	2b5c9102 	blcs	1726310 <__bug_end+0x72038c>
    1f04:	01004180 	smlabbeq	r0, r0, r1, r4
    1f08:	010041e4 	smlatteq	r0, r4, r1, r4
    1f0c:	6e656c31 	mcrvs	12, 3, r6, cr5, cr1, {1}
    1f10:	01630100 	cmneq	r3, r0, lsl #2
    1f14:	0000003e 	andeq	r0, r0, lr, lsr r0
    1f18:	0000113a 	andeq	r1, r0, sl, lsr r1
    1f1c:	01006d31 	tsteq	r0, r1, lsr sp
    1f20:	00370164 	eorseq	r0, r7, r4, ror #2
    1f24:	11580000 	cmpne	r8, r0
    1f28:	761e0000 	ldrvc	r0, [lr], -r0
    1f2c:	01650100 	cmneq	r5, r0, lsl #2
    1f30:	00000111 	andeq	r0, r0, r1, lsl r1
    1f34:	01440000 	mrseq	r0, (UNDEF: 68)
    1f38:	00000422 	andeq	r0, r0, r2, lsr #8
    1f3c:	c001bb01 	andgt	fp, r1, r1, lsl #22
    1f40:	e4000001 	str	r0, [r0], #-1
    1f44:	5c010041 	stcpl	0, cr0, [r1], {65}	; 0x41
    1f48:	02010042 	andeq	r0, r1, #66	; 0x42
    1f4c:	114c007d 	hvcne	49165	; 0xc00d
    1f50:	73240000 	teqvc	r4, #0
    1f54:	01006372 	tsteq	r0, r2, ror r3
    1f58:	00114cbb 			; <UNDEFINED> instruction: 0x00114cbb
    1f5c:	00117700 	andseq	r7, r1, r0, lsl #14
    1f60:	05974700 	ldreq	r4, [r7, #1792]	; 0x700
    1f64:	bb010000 	bllt	41f6c <_monitor_vecs-0xfbf094>
    1f68:	0000003e 	andeq	r0, r0, lr, lsr r0
    1f6c:	000011a0 	andeq	r1, r0, r0, lsr #3
    1f70:	6e656c24 	cdpvs	12, 6, cr6, cr5, cr4, {1}
    1f74:	d0bb0100 	adcsle	r0, fp, r0, lsl #2
    1f78:	cb000000 	blgt	1f80 <_monitor_vecs-0xfff080>
    1f7c:	3b000011 	blcc	1fc8 <_monitor_vecs-0xfff038>
    1f80:	00000443 	andeq	r0, r0, r3, asr #8
    1f84:	0100420c 	tsteq	r0, ip, lsl #4
    1f88:	01004230 	tsteq	r0, r0, lsr r2
    1f8c:	1132cd01 	teqne	r2, r1, lsl #26
    1f90:	5b330000 	blpl	cc1f98 <_monitor_vecs-0x33f068>
    1f94:	e9000004 	stmdb	r0, {r2}
    1f98:	33000011 	movwcc	r0, #17
    1f9c:	00000450 	andeq	r0, r0, r0, asr r4
    1fa0:	000011fc 	strdeq	r1, [r0], -ip
    1fa4:	00420c2b 	subeq	r0, r2, fp, lsr #24
    1fa8:	00423001 	subeq	r3, r2, r1
    1fac:	04662c01 	strbteq	r2, [r6], #-3073	; 0xc01
    1fb0:	121c0000 	andsne	r0, ip, #0
    1fb4:	712c0000 	teqvc	ip, r0
    1fb8:	3a000004 	bcc	1fd0 <_monitor_vecs-0xfff030>
    1fbc:	3a000012 	bcc	200c <_monitor_vecs-0xffeff4>
    1fc0:	000001d3 	ldrdeq	r0, [r0], -r3
    1fc4:	0100421c 	tsteq	r0, ip, lsl r2
    1fc8:	01004224 	tsteq	r0, r4, lsr #4
    1fcc:	dc3a4e01 	ldcle	14, cr4, [sl], #-4
    1fd0:	24000001 	strcs	r0, [r0], #-1
    1fd4:	28010042 	stmdacs	r1, {r1, r6}
    1fd8:	01010042 	tsteq	r1, r2, asr #32
    1fdc:	01e53b4f 	mvneq	r3, pc, asr #22
    1fe0:	42280000 	eormi	r0, r8, #0
    1fe4:	422c0100 	eormi	r0, ip, #0
    1fe8:	50010100 	andpl	r0, r1, r0, lsl #2
    1fec:	0000110e 	andeq	r1, r0, lr, lsl #2
    1ff0:	0001fd33 	andeq	pc, r1, r3, lsr sp	; <UNPREDICTABLE>
    1ff4:	00125800 	andseq	r5, r2, r0, lsl #16
    1ff8:	01f23300 	mvnseq	r3, r0, lsl #6
    1ffc:	126b0000 	rsbne	r0, fp, #0
    2000:	28000000 	stmdacs	r0, {}	; <UNPREDICTABLE>
    2004:	00000209 	andeq	r0, r0, r9, lsl #4
    2008:	0100422c 	tsteq	r0, ip, lsr #4
    200c:	01004230 	tsteq	r0, r0, lsr r2
    2010:	21335101 	teqcs	r3, r1, lsl #2
    2014:	7e000002 	cdpvc	0, 0, cr0, cr0, cr2, {0}
    2018:	33000012 	movwcc	r0, #18
    201c:	00000216 	andeq	r0, r0, r6, lsl r2
    2020:	00001291 	muleq	r0, r1, r2
    2024:	28000000 	stmdacs	r0, {}	; <UNPREDICTABLE>
    2028:	0000054c 	andeq	r0, r0, ip, asr #10
    202c:	01004248 	tsteq	r0, r8, asr #4
    2030:	01004254 	tsteq	r0, r4, asr r2
    2034:	5d33c401 	cfldrspl	mvf12, [r3, #-4]!
    2038:	a4000005 	strge	r0, [r0], #-5
    203c:	00000012 	andeq	r0, r0, r2, lsl r0
    2040:	52040200 	andpl	r0, r4, #0
    2044:	48000011 	stmdami	r0, {r0, r4}
    2048:	00041e2d 	andeq	r1, r4, sp, lsr #28
    204c:	01960100 	orrseq	r0, r6, r0, lsl #2
    2050:	0001c001 	andeq	ip, r1, r1
    2054:	00425c00 	subeq	r5, r2, r0, lsl #24
    2058:	0043a801 	subeq	sl, r3, r1, lsl #16
    205c:	0012b701 	andseq	fp, r2, r1, lsl #14
    2060:	00129000 	andseq	r9, r2, r0
    2064:	05522e00 	ldrbeq	r2, [r2, #-3584]	; 0xe00
    2068:	96010000 	strls	r0, [r1], -r0
    206c:	0001c701 	andeq	ip, r1, r1, lsl #14
    2070:	0012e300 	andseq	lr, r2, r0, lsl #6
    2074:	736d2f00 	cmnvc	sp, #0
    2078:	96010067 	strls	r0, [r1], -r7, rrx
    207c:	00002501 	andeq	r2, r0, r1, lsl #10
    2080:	0012f600 	andseq	pc, r2, r0, lsl #12
    2084:	034a3400 	movteq	r3, #41984	; 0xa400
    2088:	98010000 	stmdals	r1, {}	; <UNPREDICTABLE>
    208c:	00002501 	andeq	r2, r0, r1, lsl #10
    2090:	00132700 	andseq	r2, r3, r0, lsl #14
    2094:	05973400 	ldreq	r3, [r7, #1024]	; 0x400
    2098:	99010000 	stmdbls	r1, {}	; <UNPREDICTABLE>
    209c:	00011101 	andeq	r1, r1, r1, lsl #2
    20a0:	00133a00 	andseq	r3, r3, r0, lsl #20
    20a4:	656c3100 	strbvs	r3, [ip, #-256]!	; 0x100
    20a8:	9901006e 	stmdbls	r1, {r1, r2, r3, r5, r6}
    20ac:	00011101 	andeq	r1, r1, r1, lsl #2
    20b0:	00136600 	andseq	r6, r3, r0, lsl #12
    20b4:	00703100 	rsbseq	r3, r0, r0, lsl #2
    20b8:	25019a01 	strcs	r9, [r1, #-2561]	; 0xa01
    20bc:	86000000 	strhi	r0, [r0], -r0
    20c0:	31000013 	tstcc	r0, r3, lsl r0
    20c4:	9b010076 	blls	422a4 <_monitor_vecs-0xfbed5c>
    20c8:	00011101 	andeq	r1, r1, r1, lsl #2
    20cc:	0013a600 	andseq	sl, r3, r0, lsl #12
    20d0:	756f3600 	strbvc	r3, [pc, #-1536]!	; 1ad8 <_monitor_vecs-0xfff528>
    20d4:	bf010074 	svclt	0x00010074
    20d8:	00428c01 	subeq	r8, r2, r1, lsl #24
    20dc:	05703f01 	ldrbeq	r3, [r0, #-3841]!	; 0xf01
    20e0:	42700000 	rsbsmi	r0, r0, #0
    20e4:	42800100 	addmi	r0, r0, #0
    20e8:	9e010100 	adflss	f0, f1, f0
    20ec:	00120f01 	andseq	r0, r2, r1, lsl #30
    20f0:	058c2a00 	streq	r2, [ip, #2560]	; 0xa00
    20f4:	91030000 	mrsls	r0, (UNDEF: 3)
    20f8:	822a9f60 	eorhi	r9, sl, #384	; 0x180
    20fc:	03000005 	movweq	r0, #5
    2100:	009f5891 	umullseq	r5, pc, r1, r8	; <UNPREDICTABLE>
    2104:	00059f3f 	andeq	r9, r5, pc, lsr pc
    2108:	0042a800 	subeq	sl, r2, r0, lsl #16
    210c:	0042b801 	subeq	fp, r2, r1, lsl #16
    2110:	019f0101 	orrseq	r0, pc, r1, lsl #2
    2114:	00001236 	andeq	r1, r0, r6, lsr r2
    2118:	0005bb2a 	andeq	fp, r5, sl, lsr #22
    211c:	5c910300 	ldcpl	3, cr0, [r1], {0}
    2120:	05b12a9f 	ldreq	r2, [r1, #2719]!	; 0xa9f
    2124:	91030000 	mrsls	r0, (UNDEF: 3)
    2128:	3d009f58 	stccc	15, cr9, [r0, #-352]	; 0xfffffea0
    212c:	00000350 	andeq	r0, r0, r0, asr r3
    2130:	01006d31 	tsteq	r0, r1, lsr sp
    2134:	003701b1 	ldrhteq	r0, [r7], -r1
    2138:	13c60000 	bicne	r0, r6, #0
    213c:	683d0000 	ldmdavs	sp!, {}	; <UNPREDICTABLE>
    2140:	31000003 	tstcc	r0, r3
    2144:	b4010076 	strlt	r0, [r1], #-118	; 0x76
    2148:	0000ed01 	andeq	lr, r0, r1, lsl #26
    214c:	0013e500 	andseq	lr, r3, r0, lsl #10
    2150:	05c83e00 	strbeq	r3, [r8, #3584]	; 0xe00
    2154:	42ec0000 	rscmi	r0, ip, #0
    2158:	03880100 	orreq	r0, r8, #0
    215c:	b5010000 	strlt	r0, [r1]
    2160:	05e03301 	strbeq	r3, [r0, #769]!	; 0x301
    2164:	14110000 	ldrne	r0, [r1]
    2168:	d6330000 	ldrtle	r0, [r3], -r0
    216c:	33000005 	movwcc	r0, #5
    2170:	3d000014 	stccc	0, cr0, [r0, #-80]	; 0xffffffb0
    2174:	000003b0 			; <UNDEFINED> instruction: 0x000003b0
    2178:	0005ea42 	andeq	lr, r5, r2, asr #20
    217c:	6c910200 	lfmvs	f0, 4, [r1], {0}
    2180:	00000000 	andeq	r0, r0, r0
    2184:	04611900 	strbteq	r1, [r1], #-2304	; 0x900
    2188:	a3010000 	movwge	r0, #4096	; 0x1000
    218c:	01c00102 	biceq	r0, r0, r2, lsl #2
    2190:	e8010000 	stmda	r1, {}	; <UNPREDICTABLE>
    2194:	1b000012 	blne	21e4 <_monitor_vecs-0xffee1c>
    2198:	00000552 	andeq	r0, r0, r2, asr r5
    219c:	c702a301 	strgt	sl, [r2, -r1, lsl #6]
    21a0:	1e000001 	cdpne	0, 0, cr0, cr0, cr1, {0}
    21a4:	a5010070 	strge	r0, [r1, #-112]	; 0x70
    21a8:	0002b002 	andeq	fp, r2, r2
    21ac:	63721e00 	cmnvs	r2, #0
    21b0:	02a60100 	adceq	r0, r6, #0
    21b4:	000001c0 	andeq	r0, r0, r0, asr #3
    21b8:	0003fb21 	andeq	pc, r3, r1, lsr #22
    21bc:	02a70100 	adceq	r0, r7, #0
    21c0:	000000ed 	andeq	r0, r0, sp, ror #1
    21c4:	00036e21 	andeq	r6, r3, r1, lsr #28
    21c8:	02a70100 	adceq	r0, r7, #0
    21cc:	000000ed 	andeq	r0, r0, sp, ror #1
    21d0:	0002ff21 	andeq	pc, r2, r1, lsr #30
    21d4:	02a80100 	adceq	r0, r8, #0
    21d8:	00000438 	andeq	r0, r0, r8, lsr r4
    21dc:	0f014900 	svceq	0x00014900
    21e0:	01000003 	tsteq	r0, r3
    21e4:	a80102c2 	stmdage	r1, {r1, r6, r7, r9}
    21e8:	70010043 	andvc	r0, r1, r3, asr #32
    21ec:	55010045 	strpl	r0, [r1, #-69]	; 0x45
    21f0:	b2000014 	andlt	r0, r0, #20
    21f4:	2e000014 	mcrcs	0, 0, r0, cr0, cr4, {0}
    21f8:	00000552 	andeq	r0, r0, r2, asr r5
    21fc:	c702c201 	strgt	ip, [r2, -r1, lsl #4]
    2200:	81000001 	tsthi	r0, r1
    2204:	3d000014 	stccc	0, cr0, [r0, #-80]	; 0xffffffb0
    2208:	000003d8 	ldrdeq	r0, [r0], -r8
    220c:	01006331 	tsteq	r0, r1, lsr r3
    2210:	01c002c5 	biceq	r0, r0, r5, asr #5
    2214:	149f0000 	ldrne	r0, [pc], #0	; 221c <_monitor_vecs-0xffede4>
    2218:	903c0000 	eorsls	r0, ip, r0
    221c:	bc000012 	stclt	0, cr0, [r0], {18}
    2220:	f8010043 			; <UNDEFINED> instruction: 0xf8010043
    2224:	01000003 	tsteq	r0, r3
    2228:	147d02d0 	ldrbtne	r0, [sp], #-720	; 0x2d0
    222c:	a2400000 	subge	r0, r0, #0
    2230:	3d000012 	stccc	0, cr0, [r0, #-72]	; 0xffffffb8
    2234:	00000418 	andeq	r0, r0, r8, lsl r4
    2238:	0012ae2c 	andseq	sl, r2, ip, lsr #28
    223c:	0014bd00 	andseq	fp, r4, r0, lsl #26
    2240:	12b84a00 	adcsne	r4, r8, #0
    2244:	c32c0000 	teqgt	ip, #0
    2248:	f3000012 	vqadd.u8	d0, d0, d2
    224c:	2c000014 	stccs	0, cr0, [r0], {20}
    2250:	000012cf 	andeq	r1, r0, pc, asr #5
    2254:	0000150b 	andeq	r1, r0, fp, lsl #10
    2258:	0012db4a 	andseq	sp, r2, sl, asr #22
    225c:	02873c00 	addeq	r3, r7, #0
    2260:	44200000 	strtmi	r0, [r0]
    2264:	04380100 	ldrteq	r0, [r8], #-256	; 0x100
    2268:	ab010000 	blge	42270 <_monitor_vecs-0xfbed90>
    226c:	00138602 	andseq	r8, r3, r2, lsl #12
    2270:	02993300 	addseq	r3, r9, #0
    2274:	15290000 	strne	r0, [r9]!
    2278:	3c000000 	stccc	0, cr0, [r0], {0}
    227c:	0000040f 	andeq	r0, r0, pc, lsl #8
    2280:	010043bc 			; <UNDEFINED> instruction: 0x010043bc
    2284:	00000450 	andeq	r0, r0, r0, asr r4
    2288:	b302bc01 	movwlt	fp, #11265	; 0x2c01
    228c:	33000013 	movwcc	r0, #19
    2290:	00000421 	andeq	r0, r0, r1, lsr #8
    2294:	0000155f 	andeq	r1, r0, pc, asr r5
    2298:	0004683d 	andeq	r6, r4, sp, lsr r8
    229c:	042d2c00 	strteq	r2, [sp], #-3072	; 0xc00
    22a0:	15770000 	ldrbne	r0, [r7]!
    22a4:	00000000 	andeq	r0, r0, r0
    22a8:	00037a3f 	andeq	r7, r3, pc, lsr sl
    22ac:	00444000 	subeq	r4, r4, r0
    22b0:	00448401 	subeq	r8, r4, r1, lsl #8
    22b4:	02b50101 	adcseq	r0, r5, #1073741824	; 0x40000000
    22b8:	00001414 	andeq	r1, r0, r4, lsl r4
    22bc:	00038c40 	andeq	r8, r3, r0, asr #24
    22c0:	44402b00 	strbmi	r2, [r0], #-2816	; 0xb00
    22c4:	44840100 	strmi	r0, [r4], #256	; 0x100
    22c8:	984a0100 	stmdals	sl, {r8}^
    22cc:	3c000003 	stccc	0, cr0, [r0], {3}
    22d0:	000002b6 			; <UNDEFINED> instruction: 0x000002b6
    22d4:	0100444c 	tsteq	r0, ip, asr #8
    22d8:	00000480 	andeq	r0, r0, r0, lsl #9
    22dc:	f8012601 			; <UNDEFINED> instruction: 0xf8012601
    22e0:	33000013 	movwcc	r0, #19
    22e4:	000002c8 	andeq	r0, r0, r8, asr #5
    22e8:	00001596 	muleq	r0, r6, r5
    22ec:	02b63e00 	adcseq	r3, r6, #0
    22f0:	445c0000 	ldrbmi	r0, [ip]
    22f4:	04a00100 	strteq	r0, [r0], #256	; 0x100
    22f8:	26010000 	strcs	r0, [r1], -r0
    22fc:	02c83301 	sbceq	r3, r8, #67108864	; 0x4000000
    2300:	15a90000 	strne	r0, [r9]!
    2304:	00000000 	andeq	r0, r0, r0
    2308:	03b93f00 			; <UNDEFINED> instruction: 0x03b93f00
    230c:	44840000 	strmi	r0, [r4]
    2310:	44a40100 	strtmi	r0, [r4], #256	; 0x100
    2314:	b8010100 	stmdalt	r1, {r8}
    2318:	00143202 	andseq	r3, r4, r2, lsl #4
    231c:	03c73300 	biceq	r3, r7, #0
    2320:	15bc0000 	ldrne	r0, [ip]!
    2324:	32000000 	andcc	r0, r0, #0
    2328:	000003d4 	ldrdeq	r0, [r0], -r4
    232c:	010044a4 	smlatbeq	r0, r4, r4, r4
    2330:	010044d4 	ldrdeq	r4, [r0, -r4]
    2334:	3302ba01 	movwcc	fp, #10753	; 0x2a01
    2338:	000003e2 	andeq	r0, r0, r2, ror #7
    233c:	000015db 	ldrdeq	r1, [r0], -fp
    2340:	0044a42b 	subeq	sl, r4, fp, lsr #8
    2344:	0044d401 	subeq	sp, r4, r1, lsl #8
    2348:	03ee2c01 	mvneq	r2, #256	; 0x100
    234c:	15f30000 	ldrbne	r0, [r3]!
    2350:	f82c0000 			; <UNDEFINED> instruction: 0xf82c0000
    2354:	06000003 	streq	r0, [r0], -r3
    2358:	2b000016 	blcs	23b8 <_monitor_vecs-0xffec48>
    235c:	010044a4 	smlatbeq	r0, r4, r4, r4
    2360:	010044c0 	smlabteq	r0, r0, r4, r4
    2364:	0004032c 	andeq	r0, r4, ip, lsr #6
    2368:	00163a00 	andseq	r3, r6, r0, lsl #20
    236c:	00000000 	andeq	r0, r0, r0
    2370:	23410000 	movtcs	r0, #4096	; 0x1000
    2374:	cc000003 	stcgt	0, cr0, [r0], {3}
    2378:	d8010043 	stmdale	r1, {r0, r1, r6}
    237c:	01010043 	tsteq	r1, r3, asr #32
    2380:	f73202d7 			; <UNDEFINED> instruction: 0xf73202d7
    2384:	30000005 	andcc	r0, r0, r5
    2388:	58010045 	stmdapl	r1, {r0, r2, r6}
    238c:	01010045 	tsteq	r1, r5, asr #32
    2390:	302b02cc 	eorcc	r0, fp, ip, asr #5
    2394:	58010045 	stmdapl	r1, {r0, r2, r6}
    2398:	42010045 	andmi	r0, r1, #69	; 0x45
    239c:	00000609 	andeq	r0, r0, r9, lsl #12
    23a0:	005c9102 	subseq	r9, ip, r2, lsl #2
    23a4:	4b000000 	blmi	23ac <_monitor_vecs-0xffec54>
    23a8:	0002f301 	andeq	pc, r2, r1, lsl #6
    23ac:	01fe0100 	mvnseq	r0, r0, lsl #2
    23b0:	01004570 	tsteq	r0, r0, ror r5
    23b4:	010045f0 	strdeq	r4, [r0, -r0]
    23b8:	0000164d 	andeq	r1, r0, sp, asr #12
    23bc:	00001508 	andeq	r1, r0, r8, lsl #10
    23c0:	00055247 	andeq	r5, r5, r7, asr #4
    23c4:	c7fe0100 	ldrbgt	r0, [lr, r0, lsl #2]!
    23c8:	79000001 	stmdbvc	r0, {r0}
    23cc:	31000016 	tstcc	r0, r6, lsl r0
    23d0:	0001006d 	andeq	r0, r1, sp, rrx
    23d4:	00003701 	andeq	r3, r0, r1, lsl #14
    23d8:	00169700 	andseq	r9, r6, r0, lsl #14
    23dc:	03423e00 	movteq	r3, #11776	; 0x2e00
    23e0:	45800000 	strmi	r0, [r0]
    23e4:	04c00100 	strbeq	r0, [r0], #256	; 0x100
    23e8:	04010000 	streq	r0, [r1]
    23ec:	04e83d01 	strbteq	r3, [r8], #3329	; 0xd01
    23f0:	59420000 	stmdbpl	r2, {}^	; <UNPREDICTABLE>
    23f4:	02000003 	andeq	r0, r0, #3
    23f8:	00005c91 	muleq	r0, r1, ip
    23fc:	ce014900 	cdpgt	9, 0, cr4, cr1, cr0, {0}
    2400:	01000003 	tsteq	r0, r3
    2404:	f00102ec 			; <UNDEFINED> instruction: 0xf00102ec
    2408:	30010045 	andcc	r0, r1, r5, asr #32
    240c:	ab010046 	blge	4252c <_monitor_vecs-0xfbead4>
    2410:	c0000016 	andgt	r0, r0, r6, lsl r0
    2414:	3e000015 	mcrcc	0, 0, r0, cr0, cr5, {0}
    2418:	0000061b 	andeq	r0, r0, fp, lsl r6
    241c:	010045fc 	strdeq	r4, [r0, -ip]
    2420:	00000510 	andeq	r0, r0, r0, lsl r5
    2424:	3c02ef01 	stccc	15, cr14, [r2], {1}
    2428:	00000265 	andeq	r0, r0, r5, ror #4
    242c:	01004610 	tsteq	r0, r0, lsl r6
    2430:	00000528 	andeq	r0, r0, r8, lsr #10
    2434:	5602e301 	strpl	lr, [r2], -r1, lsl #6
    2438:	29000015 	stmdbcs	r0, {r0, r2, r4}
    243c:	0000027d 	andeq	r0, r0, sp, ror r2
    2440:	02724cb9 	rsbseq	r4, r2, #47360	; 0xb900
    2444:	b20c0000 	andlt	r0, ip, #0
    2448:	3f002000 	svccc	0x00002000
    244c:	00000265 	andeq	r0, r0, r5, ror #4
    2450:	0100460c 	tsteq	r0, ip, lsl #12
    2454:	01004610 	tsteq	r0, r0, lsl r6
    2458:	7a02e201 	bvc	bac64 <_monitor_vecs-0xf4639c>
    245c:	4d000015 	stcmi	0, cr0, [r0, #-84]	; 0xffffffac
    2460:	0000027d 	andeq	r0, r0, sp, ror r2
    2464:	02724c7f 	rsbseq	r4, r2, #32512	; 0x7f00
    2468:	b2240000 	eorlt	r0, r4, #0
    246c:	3f002000 	svccc	0x00002000
    2470:	00000265 	andeq	r0, r0, r5, ror #4
    2474:	01004608 	tsteq	r0, r8, lsl #12
    2478:	0100460c 	tsteq	r0, ip, lsl #12
    247c:	9e02e101 	mvflss	f6, f1
    2480:	4d000015 	stcmi	0, cr0, [r0, #-84]	; 0xffffffac
    2484:	0000027d 	andeq	r0, r0, sp, ror r2
    2488:	02724c7f 	rsbseq	r4, r2, #32512	; 0x7f00
    248c:	b2200000 	eorlt	r0, r0, #0
    2490:	32002000 	andcc	r2, r0, #0
    2494:	00000265 	andeq	r0, r0, r5, ror #4
    2498:	010045fc 	strdeq	r4, [r0, -ip]
    249c:	01004608 	tsteq	r0, r8, lsl #12
    24a0:	4d02e001 	stcmi	0, cr14, [r2, #-4]
    24a4:	0000027d 	andeq	r0, r0, sp, ror r2
    24a8:	02724c7f 	rsbseq	r4, r2, #32512	; 0x7f00
    24ac:	b21c0000 	andslt	r0, ip, #0
    24b0:	00002000 	andeq	r2, r0, r0
    24b4:	00300a00 	eorseq	r0, r0, r0, lsl #20
    24b8:	15d10000 	ldrbne	r0, [r1]
    24bc:	374e0000 	strbcc	r0, [lr, -r0]
    24c0:	ff000000 			; <UNDEFINED> instruction: 0xff000000
    24c4:	59260001 	stmdbpl	r6!, {r0}
    24c8:	01000004 	tsteq	r0, r4
    24cc:	0015c01d 	andseq	ip, r5, sp, lsl r0
    24d0:	04030500 	streq	r0, [r3], #-1280	; 0x500
    24d4:	2601004d 	strcs	r0, [r1], -sp, asr #32
    24d8:	000005c0 	andeq	r0, r0, r0, asr #11
    24dc:	011c1e01 	tsteq	ip, r1, lsl #28
    24e0:	03050000 	movweq	r0, #20480	; 0x5000
    24e4:	01004b00 	tsteq	r0, r0, lsl #22
    24e8:	0001500a 	andeq	r5, r1, sl
    24ec:	00160300 	andseq	r0, r6, r0, lsl #6
    24f0:	00370b00 	eorseq	r0, r7, r0, lsl #22
    24f4:	003f0000 	eorseq	r0, pc, r0
    24f8:	00048926 	andeq	r8, r4, r6, lsr #18
    24fc:	f32f0100 	vrhadd.u32	d0, d15, d0
    2500:	05000015 	streq	r0, [r0, #-21]
    2504:	004b0403 	subeq	r0, fp, r3, lsl #8
    2508:	017f0a01 	cmneq	pc, r1, lsl #20
    250c:	16240000 	strtne	r0, [r4], -r0
    2510:	370b0000 	strcc	r0, [fp, -r0]
    2514:	0d000000 	stceq	0, cr0, [r0]
    2518:	03353000 	teqeq	r5, #0
    251c:	74010000 	strvc	r0, [r1]
    2520:	00163602 	andseq	r3, r6, r2, lsl #12
    2524:	94030500 	strls	r0, [r3], #-1280	; 0x500
    2528:	03010048 	movweq	r0, #4168	; 0x1048
    252c:	00001614 	andeq	r1, r0, r4, lsl r6
    2530:	00003e0a 	andeq	r3, r0, sl, lsl #28
    2534:	00164c00 	andseq	r4, r6, r0, lsl #24
    2538:	00374e00 	eorseq	r4, r7, r0, lsl #28
    253c:	03ff0000 	mvnseq	r0, #0
    2540:	03814f00 	orreq	r4, r1, #0
    2544:	ea010000 	b	4254c <_monitor_vecs-0xfbeab4>
    2548:	00163b02 	andseq	r3, r6, r2, lsl #22
    254c:	50010100 	andpl	r0, r1, r0, lsl #2
    2550:	00000381 	andeq	r0, r0, r1, lsl #7
    2554:	3b02ea01 	blcc	bcd60 <_monitor_vecs-0xf442a0>
    2558:	01000016 	tsteq	r0, r6, lsl r0
    255c:	4f040305 	svcmi	0x00040305
    2560:	4c000100 	stfmis	f0, [r0], {0}
    2564:	02000001 	andeq	r0, r0, #1
    2568:	0009a100 	andeq	sl, r9, r0, lsl #2
    256c:	2d010400 	cfstrscs	mvf0, [r1]
    2570:	01000000 	mrseq	r0, (UNDEF: 0)
    2574:	000005e6 	andeq	r0, r0, r6, ror #11
    2578:	00000039 	andeq	r0, r0, r9, lsr r0
    257c:	01004630 	tsteq	r0, r0, lsr r6
    2580:	01004718 	tsteq	r0, r8, lsl r7
    2584:	00000756 	andeq	r0, r0, r6, asr r7
    2588:	05f90102 	ldrbeq	r0, [r9, #258]!	; 0x102
    258c:	09010000 	stmdbeq	r1, {}	; <UNPREDICTABLE>
    2590:	00463001 	subeq	r3, r6, r1
    2594:	00465801 	subeq	r5, r6, r1, lsl #16
    2598:	0016cb01 	andseq	ip, r6, r1, lsl #22
    259c:	00005b00 	andeq	r5, r0, r0, lsl #22
    25a0:	74730300 	ldrbtvc	r0, [r3], #-768	; 0x300
    25a4:	09010072 	stmdbeq	r1, {r1, r4, r5, r6}
    25a8:	0000005b 	andeq	r0, r0, fp, asr r0
    25ac:	000016eb 	andeq	r1, r0, fp, ror #13
    25b0:	01007004 	tsteq	r0, r4
    25b4:	00005b0b 	andeq	r5, r0, fp, lsl #22
    25b8:	00170900 	andseq	r0, r7, r0, lsl #18
    25bc:	04050000 	streq	r0, [r5]
    25c0:	00000061 	andeq	r0, r0, r1, rrx
    25c4:	00006606 	andeq	r6, r0, r6, lsl #12
    25c8:	08010700 	stmdaeq	r1, {r8, r9, sl}
    25cc:	00000123 	andeq	r0, r0, r3, lsr #2
    25d0:	05d20102 	ldrbeq	r0, [r2, #258]	; 0x102
    25d4:	11010000 	mrsne	r0, (UNDEF: 1)
    25d8:	00465801 	subeq	r5, r6, r1, lsl #16
    25dc:	0046b001 	subeq	fp, r6, r1
    25e0:	00172701 	andseq	r2, r7, r1, lsl #14
    25e4:	0000b100 	andeq	fp, r0, r0, lsl #2
    25e8:	73640300 	cmnvc	r4, #0
    25ec:	11010074 	tstne	r1, r4, ror r0
    25f0:	000000b1 	strheq	r0, [r0], -r1
    25f4:	00001753 	andeq	r1, r0, r3, asr r7
    25f8:	01006203 	tsteq	r0, r3, lsl #4
    25fc:	00006611 	andeq	r6, r0, r1, lsl r6
    2600:	00178900 	andseq	r8, r7, r0, lsl #18
    2604:	05df0800 	ldrbeq	r0, [pc, #2048]	; 2e0c <_monitor_vecs-0xffe1f4>
    2608:	13010000 	movwne	r0, #4096	; 0x1000
    260c:	000000b7 	strheq	r0, [r0], -r7
    2610:	00689102 	rsbeq	r9, r8, r2, lsl #2
    2614:	00660405 	rsbeq	r0, r6, r5, lsl #8
    2618:	66090000 	strvs	r0, [r9], -r0
    261c:	c7000000 	strgt	r0, [r0, -r0]
    2620:	0a000000 	beq	2628 <_monitor_vecs-0xffe9d8>
    2624:	000000c7 	andeq	r0, r0, r7, asr #1
    2628:	0407000f 	streq	r0, [r7], #-15
    262c:	0000a407 	andeq	sl, r0, r7, lsl #8
    2630:	ef010200 	svc	0x00010200
    2634:	01000005 	tsteq	r0, r5
    2638:	46b0011c 	ssatmi	r0, #17, ip, lsl #2
    263c:	47180100 	ldrmi	r0, [r8, -r0, lsl #2]
    2640:	179c0100 	ldrne	r0, [ip, r0, lsl #2]
    2644:	01310000 	teqeq	r1, r0
    2648:	72030000 	andvc	r0, r3, #0
    264c:	311c0100 	tstcc	ip, r0, lsl #2
    2650:	c8000001 	stmdagt	r0, {r0}
    2654:	0b000017 	bleq	26b8 <_monitor_vecs-0xffe948>
    2658:	00667562 	rsbeq	r7, r6, r2, ror #10
    265c:	01381e01 	teqeq	r8, r1, lsl #28
    2660:	91020000 	mrsls	r0, (UNDEF: 2)
    2664:	05df086c 	ldrbeq	r0, [pc, #2156]	; 2ed8 <_monitor_vecs-0xffe128>
    2668:	1f010000 	svcne	0x00010000
    266c:	000000b7 	strheq	r0, [r0], -r7
    2670:	045c9102 	ldrbeq	r9, [ip], #-258	; 0x102
    2674:	23010069 	movwcs	r0, #4201	; 0x1069
    2678:	00000148 	andeq	r0, r0, r8, asr #2
    267c:	000017e6 	andeq	r1, r0, r6, ror #15
    2680:	0005400c 	andeq	r4, r5, ip
    2684:	00740400 	rsbseq	r0, r4, r0, lsl #8
    2688:	01312601 	teqeq	r1, r1, lsl #12
    268c:	17fa0000 	ldrbne	r0, [sl, r0]!
    2690:	00000000 	andeq	r0, r0, r0
    2694:	9f070407 	svcls	0x00070407
    2698:	09000000 	stmdbeq	r0, {}	; <UNPREDICTABLE>
    269c:	00000066 	andeq	r0, r0, r6, rrx
    26a0:	00000148 	andeq	r0, r0, r8, asr #2
    26a4:	0000c70a 	andeq	ip, r0, sl, lsl #14
    26a8:	0d000800 	stceq	8, cr0, [r0]
    26ac:	6e690504 	cdpvs	5, 6, cr0, cr9, cr4, {0}
    26b0:	e3000074 	movw	r0, #116	; 0x74
    26b4:	02000001 	andeq	r0, r0, #1
    26b8:	000a4700 	andeq	r4, sl, r0, lsl #14
    26bc:	2d010400 	cfstrscs	mvf0, [r1]
    26c0:	01000000 	mrseq	r0, (UNDEF: 0)
    26c4:	00000605 	andeq	r0, r0, r5, lsl #12
    26c8:	00000039 	andeq	r0, r0, r9, lsr r0
    26cc:	01004718 	tsteq	r0, r8, lsl r7
    26d0:	01004830 	tsteq	r0, r0, lsr r8
    26d4:	000007c4 	andeq	r0, r0, r4, asr #15
    26d8:	00036202 	andeq	r6, r3, r2, lsl #4
    26dc:	30090200 	andcc	r0, r9, r0, lsl #4
    26e0:	03000000 	movweq	r0, #0
    26e4:	009f0704 	addseq	r0, pc, r4, lsl #14
    26e8:	04030000 	streq	r0, [r3]
    26ec:	0000c105 	andeq	ip, r0, r5, lsl #2
    26f0:	08010300 	stmdaeq	r1, {r8, r9}
    26f4:	0000011a 	andeq	r0, r0, sl, lsl r1
    26f8:	67070203 	strvs	r0, [r7, -r3, lsl #4]
    26fc:	02000000 	andeq	r0, r0, #0
    2700:	000003c9 	andeq	r0, r0, r9, asr #7
    2704:	00570f02 	subseq	r0, r7, r2, lsl #30
    2708:	01030000 	mrseq	r0, (UNDEF: 3)
    270c:	00012308 	andeq	r2, r1, r8, lsl #6
    2710:	64040400 	strvs	r0, [r4], #-1024	; 0x400
    2714:	05000000 	streq	r0, [r0]
    2718:	00000057 	andeq	r0, r0, r7, asr r0
    271c:	060e0106 	streq	r0, [lr], -r6, lsl #2
    2720:	09010000 	stmdbeq	r1, {}	; <UNPREDICTABLE>
    2724:	00002501 	andeq	r2, r0, r1, lsl #10
    2728:	00471800 	subeq	r1, r7, r0, lsl #16
    272c:	00474001 	subeq	r4, r7, r1
    2730:	007d0201 	rsbseq	r0, sp, r1, lsl #4
    2734:	000000a4 	andeq	r0, r0, r4, lsr #1
    2738:	72747307 	rsbsvc	r7, r4, #469762048	; 0x1c000000
    273c:	5e090100 	adfple	f0, f1, f0
    2740:	2c000000 	stccs	0, cr0, [r0], {0}
    2744:	08000018 	stmdaeq	r0, {r3, r4}
    2748:	006e656c 	rsbeq	r6, lr, ip, ror #10
    274c:	00250b01 	eoreq	r0, r5, r1, lsl #22
    2750:	18410000 	stmdane	r1, {}^	; <UNPREDICTABLE>
    2754:	09000000 	stmdbeq	r0, {}	; <UNPREDICTABLE>
    2758:	00062801 	andeq	r2, r6, r1, lsl #16
    275c:	01130100 	tsteq	r3, r0, lsl #2
    2760:	00000107 	andeq	r0, r0, r7, lsl #2
    2764:	01004740 	tsteq	r0, r0, asr #14
    2768:	01004784 	smlabbeq	r0, r4, r7, r4
    276c:	00001860 	andeq	r1, r0, r0, ror #16
    2770:	00000107 	andeq	r0, r0, r7, lsl #2
    2774:	01006107 	tsteq	r0, r7, lsl #2
    2778:	00005e13 	andeq	r5, r0, r3, lsl lr
    277c:	00188000 	andseq	r8, r8, r0
    2780:	00620700 	rsbeq	r0, r2, r0, lsl #14
    2784:	005e1301 	subseq	r1, lr, r1, lsl #6
    2788:	189e0000 	ldmne	lr, {}	; <UNPREDICTABLE>
    278c:	6c070000 	stcvs	0, cr0, [r7], {0}
    2790:	01006e65 	tsteq	r0, r5, ror #28
    2794:	00002513 	andeq	r2, r0, r3, lsl r5
    2798:	0018bc00 	andseq	fp, r8, r0, lsl #24
    279c:	63610800 	cmnvs	r1, #0
    27a0:	07150100 	ldreq	r0, [r5, -r0, lsl #2]
    27a4:	e7000001 	str	r0, [r0, -r1]
    27a8:	08000018 	stmdaeq	r0, {r3, r4}
    27ac:	01006362 	tsteq	r0, r2, ror #6
    27b0:	00010715 	andeq	r0, r1, r5, lsl r7
    27b4:	0018fa00 	andseq	pc, r8, r0, lsl #20
    27b8:	040a0000 	streq	r0, [sl]
    27bc:	746e6905 	strbtvc	r6, [lr], #-2309	; 0x905
    27c0:	15010600 	strne	r0, [r1, #-1536]	; 0x600
    27c4:	01000006 	tsteq	r0, r6
    27c8:	004c0126 	subeq	r0, ip, r6, lsr #2
    27cc:	47840000 	strmi	r0, [r4, r0]
    27d0:	47bc0100 	ldrmi	r0, [ip, r0, lsl #2]!
    27d4:	7d020100 	stfvcs	f0, [r2]
    27d8:	00013800 	andeq	r3, r1, r0, lsl #16
    27dc:	00760700 	rsbseq	r0, r6, r0, lsl #14
    27e0:	00572601 	subseq	r2, r7, r1, lsl #12
    27e4:	190d0000 	stmdbne	sp, {}	; <UNPREDICTABLE>
    27e8:	06000000 	streq	r0, [r0], -r0
    27ec:	0005fe01 	andeq	pc, r5, r1, lsl #28
    27f0:	012d0100 	teqeq	sp, r0, lsl #2
    27f4:	00000171 	andeq	r0, r0, r1, ror r1
    27f8:	010047bc 			; <UNDEFINED> instruction: 0x010047bc
    27fc:	01004804 	tsteq	r0, r4, lsl #16
    2800:	71007d02 	tstvc	r0, r2, lsl #26
    2804:	07000001 	streq	r0, [r0, -r1]
    2808:	00727473 	rsbseq	r7, r2, r3, ror r4
    280c:	005e2d01 	subseq	r2, lr, r1, lsl #26
    2810:	192b0000 	stmdbne	fp!, {}	; <UNPREDICTABLE>
    2814:	970b0000 	strls	r0, [fp, -r0]
    2818:	01000003 	tsteq	r0, r3
    281c:	0001072d 	andeq	r0, r1, sp, lsr #14
    2820:	00510100 	subseq	r0, r1, r0, lsl #2
    2824:	00570404 	subseq	r0, r7, r4, lsl #8
    2828:	01060000 	mrseq	r0, (UNDEF: 6)
    282c:	00000621 	andeq	r0, r0, r1, lsr #12
    2830:	dd013801 	stcle	8, cr3, [r1, #-4]
    2834:	04000001 	streq	r0, [r0], #-1
    2838:	30010048 	andcc	r0, r1, r8, asr #32
    283c:	02010048 	andeq	r0, r1, #72	; 0x48
    2840:	01dd007d 	bicseq	r0, sp, sp, ror r0
    2844:	64070000 	strvs	r0, [r7]
    2848:	01007473 	tsteq	r0, r3, ror r4
    284c:	0001dd38 	andeq	sp, r1, r8, lsr sp
    2850:	00196c00 	andseq	r6, r9, r0, lsl #24
    2854:	72730c00 	rsbsvc	r0, r3, #0
    2858:	38010063 	stmdacc	r1, {r0, r1, r5, r6}
    285c:	000001df 	ldrdeq	r0, [r0], -pc	; <UNPREDICTABLE>
    2860:	6c075101 	stfvss	f5, [r7], {1}
    2864:	01006e65 	tsteq	r0, r5, ror #28
    2868:	00002538 	andeq	r2, r0, r8, lsr r5
    286c:	00198a00 	andseq	r8, r9, r0, lsl #20
    2870:	061c0d00 	ldreq	r0, [ip], -r0, lsl #26
    2874:	3a010000 	bcc	4287c <_monitor_vecs-0xfbe784>
    2878:	00000171 	andeq	r0, r0, r1, ror r1
    287c:	0000199d 	muleq	r0, sp, r9
    2880:	0006300d 	andeq	r3, r6, sp
    2884:	5e3b0100 	rsfple	f0, f3, f0
    2888:	b0000000 	andlt	r0, r0, r0
    288c:	00000019 	andeq	r0, r0, r9, lsl r0
    2890:	0404040e 	streq	r0, [r4], #-1038	; 0x40e
    2894:	000001e5 	andeq	r0, r0, r5, ror #3
    2898:	Address 0x0000000000002898 is out of bounds.


Disassembly of section .debug_abbrev:

00000000 <.debug_abbrev>:
   0:	10001101 	andne	r1, r0, r1, lsl #2
   4:	03065506 	movweq	r5, #25862	; 0x6506
   8:	25081b08 	strcs	r1, [r8, #-2824]	; 0xb08
   c:	00051308 	andeq	r1, r5, r8, lsl #6
  10:	11010000 	mrsne	r0, (UNDEF: 1)
  14:	130e2501 	movwne	r2, #58625	; 0xe501
  18:	1b0e030b 	blne	380c4c <_monitor_vecs-0xc803b4>
  1c:	1201110e 	andne	r1, r1, #-2147483645	; 0x80000003
  20:	00061001 	andeq	r1, r6, r1
  24:	01040200 	mrseq	r0, R12_usr
  28:	0b0b0e03 	bleq	2c383c <_monitor_vecs-0xd3d7c4>
  2c:	0b3b0b3a 	bleq	ec2d1c <_monitor_vecs-0x13e2e4>
  30:	00001301 	andeq	r1, r0, r1, lsl #6
  34:	03002803 	movweq	r2, #2051	; 0x803
  38:	000d1c0e 	andeq	r1, sp, lr, lsl #24
  3c:	01130400 	tsteq	r3, r0, lsl #8
  40:	0b0b0e03 	bleq	2c3854 <_monitor_vecs-0xd3d7ac>
  44:	0b3b0b3a 	bleq	ec2d34 <_monitor_vecs-0x13e2cc>
  48:	00001301 	andeq	r1, r0, r1, lsl #6
  4c:	03000d05 	movweq	r0, #3333	; 0xd05
  50:	3b0b3a08 	blcc	2ce878 <_monitor_vecs-0xd32788>
  54:	3813490b 	ldmdacc	r3, {r0, r1, r3, r8, fp, lr}
  58:	0600000a 	streq	r0, [r0], -sl
  5c:	0e03000d 	cdpeq	0, 0, cr0, cr3, cr13, {0}
  60:	0b3b0b3a 	bleq	ec2d50 <_monitor_vecs-0x13e2b0>
  64:	0a381349 	beq	e04d90 <_monitor_vecs-0x1fc270>
  68:	24070000 	strcs	r0, [r7]
  6c:	3e0b0b00 	vmlacc.f64	d0, d11, d0
  70:	0008030b 	andeq	r0, r8, fp, lsl #6
  74:	000f0800 	andeq	r0, pc, r0, lsl #16
  78:	13490b0b 	movtne	r0, #39691	; 0x9b0b
  7c:	26090000 	strcs	r0, [r9], -r0
  80:	00134900 	andseq	r4, r3, r0, lsl #18
  84:	00240a00 	eoreq	r0, r4, r0, lsl #20
  88:	0b3e0b0b 	bleq	f82cbc <_monitor_vecs-0x7e344>
  8c:	00000e03 	andeq	r0, r0, r3, lsl #28
  90:	0b01040b 	bleq	410c4 <_monitor_vecs-0xfbff3c>
  94:	3b0b3a0b 	blcc	2ce8c8 <_monitor_vecs-0xd32738>
  98:	0013010b 	andseq	r0, r3, fp, lsl #2
  9c:	00280c00 	eoreq	r0, r8, r0, lsl #24
  a0:	0d1c0803 	ldceq	8, cr0, [ip, #-12]
  a4:	010d0000 	mrseq	r0, (UNDEF: 13)
  a8:	01134901 	tsteq	r3, r1, lsl #18
  ac:	0e000013 	mcreq	0, 0, r0, cr0, cr3, {0}
  b0:	13490021 	movtne	r0, #36897	; 0x9021
  b4:	00000b2f 	andeq	r0, r0, pc, lsr #22
  b8:	03012e0f 	movweq	r2, #7695	; 0x1e0f
  bc:	3b0b3a0e 	blcc	2ce8fc <_monitor_vecs-0xd32704>
  c0:	200c270b 	andcs	r2, ip, fp, lsl #14
  c4:	0013010b 	andseq	r0, r3, fp, lsl #2
  c8:	00051000 	andeq	r1, r5, r0
  cc:	0b3a0e03 	bleq	e838e0 <_monitor_vecs-0x17d720>
  d0:	13490b3b 	movtne	r0, #39739	; 0x9b3b
  d4:	05110000 	ldreq	r0, [r1]
  d8:	3a080300 	bcc	200ce0 <_monitor_vecs-0xe00320>
  dc:	490b3b0b 	stmdbmi	fp, {r0, r1, r3, r8, r9, fp, ip, sp}
  e0:	12000013 	andne	r0, r0, #19
  e4:	0e03012e 	adfeqsp	f0, f3, #0.5
  e8:	0b3b0b3a 	bleq	ec2dd8 <_monitor_vecs-0x13e228>
  ec:	13490c27 	movtne	r0, #39975	; 0x9c27
  f0:	13010b20 	movwne	r0, #6944	; 0x1b20
  f4:	34130000 	ldrcc	r0, [r3]
  f8:	3a080300 	bcc	200d00 <_monitor_vecs-0xe00300>
  fc:	490b3b0b 	stmdbmi	fp, {r0, r1, r3, r8, r9, fp, ip, sp}
 100:	14000013 	strne	r0, [r0], #-19
 104:	0e030034 	mcreq	0, 0, r0, cr3, cr4, {1}
 108:	0b3b0b3a 	bleq	ec2df8 <_monitor_vecs-0x13e208>
 10c:	0c3f1349 	ldceq	3, cr1, [pc], #-292	; fffffff0 <__bug_end+0xfeffa06c>
 110:	00000c3c 	andeq	r0, r0, ip, lsr ip
 114:	3f002e15 	svccc	0x00002e15
 118:	3a0e030c 	bcc	380d50 <_monitor_vecs-0xc802b0>
 11c:	270b3b0b 	strcs	r3, [fp, -fp, lsl #22]
 120:	000b200c 	andeq	r2, fp, ip
 124:	002e1600 	eoreq	r1, lr, r0, lsl #12
 128:	0b3a0e03 	bleq	e8393c <_monitor_vecs-0x17d6c4>
 12c:	0c270b3b 	stceq	11, cr0, [r7], #-236	; 0xffffff14
 130:	00000b20 	andeq	r0, r0, r0, lsr #22
 134:	03012e17 	movweq	r2, #7703	; 0x1e17
 138:	3b0b3a0e 	blcc	2ce978 <_monitor_vecs-0xd32688>
 13c:	110c270b 	tstne	ip, fp, lsl #14
 140:	40011201 	andmi	r1, r1, r1, lsl #4
 144:	0013010a 	andseq	r0, r3, sl, lsl #2
 148:	00341800 	eorseq	r1, r4, r0, lsl #16
 14c:	0b3a0803 	bleq	e82160 <_monitor_vecs-0x17eea0>
 150:	13490b3b 	movtne	r0, #39739	; 0x9b3b
 154:	00000602 	andeq	r0, r0, r2, lsl #12
 158:	3f012e19 	svccc	0x00012e19
 15c:	3a0e030c 	bcc	380d94 <_monitor_vecs-0xc8026c>
 160:	270b3b0b 	strcs	r3, [fp, -fp, lsl #22]
 164:	1201110c 	andne	r1, r1, #3
 168:	01064001 	tsteq	r6, r1
 16c:	1a000013 	bne	1c0 <_monitor_vecs-0x1000e40>
 170:	0e030005 	cdpeq	0, 0, cr0, cr3, cr5, {0}
 174:	0b3b0b3a 	bleq	ec2e64 <_monitor_vecs-0x13e19c>
 178:	06021349 	streq	r1, [r2], -r9, asr #6
 17c:	341b0000 	ldrcc	r0, [fp]
 180:	3a0e0300 	bcc	380d88 <_monitor_vecs-0xc80278>
 184:	490b3b0b 	stmdbmi	fp, {r0, r1, r3, r8, r9, fp, ip, sp}
 188:	000a0213 	andeq	r0, sl, r3, lsl r2
 18c:	002e1c00 	eoreq	r1, lr, r0, lsl #24
 190:	01111331 	tsteq	r1, r1, lsr r3
 194:	0a400112 	beq	10005e4 <_monitor_vecs-0xa1c>
 198:	1d1d0000 	ldcne	0, cr0, [sp]
 19c:	52133101 	andspl	r3, r3, #1073741824	; 0x40000000
 1a0:	58065501 	stmdapl	r6, {r0, r8, sl, ip, lr}
 1a4:	010b590b 	tsteq	fp, fp, lsl #18
 1a8:	1e000013 	mcrne	0, 0, r0, cr0, cr3, {0}
 1ac:	13310005 	teqne	r1, #5
 1b0:	00000602 	andeq	r0, r0, r2, lsl #12
 1b4:	55010b1f 	strpl	r0, [r1, #-2847]	; 0xb1f
 1b8:	20000006 	andcs	r0, r0, r6
 1bc:	13310034 	teqne	r1, #52	; 0x34
 1c0:	34210000 	strtcc	r0, [r1]
 1c4:	3c133100 	ldfccs	f3, [r3], {0}
 1c8:	2200000c 	andcs	r0, r0, #12
 1cc:	13310034 	teqne	r1, #52	; 0x34
 1d0:	00000602 	andeq	r0, r0, r2, lsl #12
 1d4:	31011d23 	tstcc	r1, r3, lsr #26
 1d8:	12011113 	andne	r1, r1, #-1073741820	; 0xc0000004
 1dc:	590b5801 	stmdbpl	fp, {r0, fp, ip, lr}
 1e0:	2400000b 	strcs	r0, [r0], #-11
 1e4:	13310005 	teqne	r1, #5
 1e8:	00000a02 	andeq	r0, r0, r2, lsl #20
 1ec:	31001d25 	tstcc	r0, r5, lsr #26
 1f0:	12011113 	andne	r1, r1, #-1073741820	; 0xc0000004
 1f4:	590b5801 	stmdbpl	fp, {r0, fp, ip, lr}
 1f8:	2600000b 	strcs	r0, [r0], -fp
 1fc:	0c3f012e 	ldfeqs	f0, [pc], #-184	; 14c <_monitor_vecs-0x1000eb4>
 200:	0b3a0e03 	bleq	e83a14 <_monitor_vecs-0x17d5ec>
 204:	0c270b3b 	stceq	11, cr0, [r7], #-236	; 0xffffff14
 208:	01120111 	tsteq	r2, r1, lsl r1
 20c:	13010a40 	movwne	r0, #6720	; 0x1a40
 210:	05270000 	streq	r0, [r7]!
 214:	3a0e0300 	bcc	380e1c <_monitor_vecs-0xc801e4>
 218:	490b3b0b 	stmdbmi	fp, {r0, r1, r3, r8, r9, fp, ip, sp}
 21c:	000a0213 	andeq	r0, sl, r3, lsl r2
 220:	011d2800 	tsteq	sp, r0, lsl #16
 224:	01111331 	tsteq	r1, r1, lsr r3
 228:	0b580112 	bleq	1600678 <__bug_end+0x5fa6f4>
 22c:	13010b59 	movwne	r0, #7001	; 0x1b59
 230:	0b290000 	bleq	a40238 <_monitor_vecs-0x5c0dc8>
 234:	12011101 	andne	r1, r1, #1073741824	; 0x40000000
 238:	2a000001 	bcs	244 <_monitor_vecs-0x1000dbc>
 23c:	13310034 	teqne	r1, #52	; 0x34
 240:	00000a02 	andeq	r0, r0, r2, lsl #20
 244:	3100052b 	tstcc	r0, fp, lsr #10
 248:	000b1c13 	andeq	r1, fp, r3, lsl ip
 24c:	00052c00 	andeq	r2, r5, r0, lsl #24
 250:	061c1331 			; <UNDEFINED> instruction: 0x061c1331
 254:	01000000 	mrseq	r0, (UNDEF: 0)
 258:	0e250111 	mcreq	1, 1, r0, cr5, cr1, {0}
 25c:	0e030b13 	vmoveq.32	d3[0], r0
 260:	01110e1b 	tsteq	r1, fp, lsl lr
 264:	06100112 			; <UNDEFINED> instruction: 0x06100112
 268:	2e020000 	cdpcs	0, 0, cr0, cr2, cr0, {0}
 26c:	3a0e0301 	bcc	380e78 <_monitor_vecs-0xc80188>
 270:	270b3b0b 	strcs	r3, [fp, -fp, lsl #22]
 274:	2013490c 	andscs	r4, r3, ip, lsl #18
 278:	0013010b 	andseq	r0, r3, fp, lsl #2
 27c:	00050300 	andeq	r0, r5, r0, lsl #6
 280:	0b3a0e03 	bleq	e83a94 <_monitor_vecs-0x17d56c>
 284:	13490b3b 	movtne	r0, #39739	; 0x9b3b
 288:	24040000 	strcs	r0, [r4]
 28c:	3e0b0b00 	vmlacc.f64	d0, d11, d0
 290:	000e030b 	andeq	r0, lr, fp, lsl #6
 294:	012e0500 	teqeq	lr, r0, lsl #10
 298:	0b3a0e03 	bleq	e83aac <_monitor_vecs-0x17d554>
 29c:	0c270b3b 	stceq	11, cr0, [r7], #-236	; 0xffffff14
 2a0:	13010b20 	movwne	r0, #6944	; 0x1b20
 2a4:	05060000 	streq	r0, [r6]
 2a8:	3a080300 	bcc	200eb0 <_monitor_vecs-0xe00150>
 2ac:	490b3b0b 	stmdbmi	fp, {r0, r1, r3, r8, r9, fp, ip, sp}
 2b0:	07000013 	smladeq	r0, r3, r0, r0
 2b4:	0c3f002e 	ldceq	0, cr0, [pc], #-184	; 204 <_monitor_vecs-0x1000dfc>
 2b8:	0b3a0e03 	bleq	e83acc <_monitor_vecs-0x17d534>
 2bc:	0c270b3b 	stceq	11, cr0, [r7], #-236	; 0xffffff14
 2c0:	0b201349 	bleq	804fec <_monitor_vecs-0x7fc014>
 2c4:	24080000 	strcs	r0, [r8]
 2c8:	3e0b0b00 	vmlacc.f64	d0, d11, d0
 2cc:	0008030b 	andeq	r0, r8, fp, lsl #6
 2d0:	012e0900 	teqeq	lr, r0, lsl #18
 2d4:	0e030c3f 	mcreq	12, 0, r0, cr3, cr15, {1}
 2d8:	0b3b0b3a 	bleq	ec2fc8 <_monitor_vecs-0x13e038>
 2dc:	01110c27 	tsteq	r1, r7, lsr #24
 2e0:	0a400112 	beq	1000730 <_monitor_vecs-0x8d0>
 2e4:	00001301 	andeq	r1, r0, r1, lsl #6
 2e8:	0300050a 	movweq	r0, #1290	; 0x50a
 2ec:	3b0b3a08 	blcc	2ceb14 <_monitor_vecs-0xd324ec>
 2f0:	0213490b 	andseq	r4, r3, #180224	; 0x2c000
 2f4:	0b000006 	bleq	314 <_monitor_vecs-0x1000cec>
 2f8:	1331011d 	teqne	r1, #1073741831	; 0x40000007
 2fc:	06550152 			; <UNDEFINED> instruction: 0x06550152
 300:	0b590b58 	bleq	1643068 <__bug_end+0x63d0e4>
 304:	00001301 	andeq	r1, r0, r1, lsl #6
 308:	3100050c 	tstcc	r0, ip, lsl #10
 30c:	00061c13 	andeq	r1, r6, r3, lsl ip
 310:	011d0d00 	tsteq	sp, r0, lsl #26
 314:	01521331 	cmpeq	r2, r1, lsr r3
 318:	0b580655 	bleq	1601c74 <__bug_end+0x5fbcf0>
 31c:	00000b59 	andeq	r0, r0, r9, asr fp
 320:	3100050e 	tstcc	r0, lr, lsl #10
 324:	00060213 	andeq	r0, r6, r3, lsl r2
 328:	012e0f00 	teqeq	lr, r0, lsl #30
 32c:	01111331 	tsteq	r1, r1, lsr r3
 330:	0a400112 	beq	1000780 <_monitor_vecs-0x880>
 334:	00001301 	andeq	r1, r0, r1, lsl #6
 338:	31011d10 	tstcc	r1, r0, lsl sp
 33c:	12011113 	andne	r1, r1, #-1073741820	; 0xc0000004
 340:	590b5801 	stmdbpl	fp, {r0, fp, ip, lr}
 344:	0013010b 	andseq	r0, r3, fp, lsl #2
 348:	011d1100 	tsteq	sp, r0, lsl #2
 34c:	01111331 	tsteq	r1, r1, lsr r3
 350:	0b580112 	bleq	16007a0 <__bug_end+0x5fa81c>
 354:	00000b59 	andeq	r0, r0, r9, asr fp
 358:	31000512 	tstcc	r0, r2, lsl r5
 35c:	000b1c13 	andeq	r1, fp, r3, lsl ip
 360:	012e1300 	teqeq	lr, r0, lsl #6
 364:	0e030c3f 	mcreq	12, 0, r0, cr3, cr15, {1}
 368:	0b3b0b3a 	bleq	ec3058 <_monitor_vecs-0x13dfa8>
 36c:	01110c27 	tsteq	r1, r7, lsr #24
 370:	0a400112 	beq	10007c0 <_monitor_vecs-0x840>
 374:	05140000 	ldreq	r0, [r4]
 378:	3a0e0300 	bcc	380f80 <_monitor_vecs-0xc80080>
 37c:	490b3b0b 	stmdbmi	fp, {r0, r1, r3, r8, r9, fp, ip, sp}
 380:	000a0213 	andeq	r0, sl, r3, lsl r2
 384:	00051500 	andeq	r1, r5, r0, lsl #10
 388:	051c1331 	ldreq	r1, [ip, #-817]	; 0x331
 38c:	01000000 	mrseq	r0, (UNDEF: 0)
 390:	0e250111 	mcreq	1, 1, r0, cr5, cr1, {0}
 394:	0e030b13 	vmoveq.32	d3[0], r0
 398:	01110e1b 	tsteq	r1, fp, lsl lr
 39c:	06100112 			; <UNDEFINED> instruction: 0x06100112
 3a0:	04020000 	streq	r0, [r2]
 3a4:	0b0e0301 	bleq	380fb0 <_monitor_vecs-0xc80050>
 3a8:	3b0b3a0b 	blcc	2cebdc <_monitor_vecs-0xd32424>
 3ac:	0013010b 	andseq	r0, r3, fp, lsl #2
 3b0:	00280300 	eoreq	r0, r8, r0, lsl #6
 3b4:	0d1c0e03 	ldceq	14, cr0, [ip, #-12]
 3b8:	13040000 	movwne	r0, #16384	; 0x4000
 3bc:	0b0e0301 	bleq	380fc8 <_monitor_vecs-0xc80038>
 3c0:	3b0b3a0b 	blcc	2cebf4 <_monitor_vecs-0xd3240c>
 3c4:	0013010b 	andseq	r0, r3, fp, lsl #2
 3c8:	000d0500 	andeq	r0, sp, r0, lsl #10
 3cc:	0b3a0803 	bleq	e823e0 <_monitor_vecs-0x17ec20>
 3d0:	13490b3b 	movtne	r0, #39739	; 0x9b3b
 3d4:	00000a38 	andeq	r0, r0, r8, lsr sl
 3d8:	03000d06 	movweq	r0, #3334	; 0xd06
 3dc:	3b0b3a0e 	blcc	2cec1c <_monitor_vecs-0xd323e4>
 3e0:	3813490b 	ldmdacc	r3, {r0, r1, r3, r8, fp, lr}
 3e4:	0700000a 	streq	r0, [r0, -sl]
 3e8:	0b0b0024 	bleq	2c0480 <_monitor_vecs-0xd40b80>
 3ec:	08030b3e 	stmdaeq	r3, {r1, r2, r3, r4, r5, r8, r9, fp}
 3f0:	2e080000 	cdpcs	0, 0, cr0, cr8, cr0, {0}
 3f4:	3a0e0301 	bcc	381000 <_monitor_vecs-0xc80000>
 3f8:	270b3b0b 	strcs	r3, [fp, -fp, lsl #22]
 3fc:	2013490c 	andscs	r4, r3, ip, lsl #18
 400:	0013010b 	andseq	r0, r3, fp, lsl #2
 404:	00050900 	andeq	r0, r5, r0, lsl #18
 408:	0b3a0e03 	bleq	e83c1c <_monitor_vecs-0x17d3e4>
 40c:	13490b3b 	movtne	r0, #39739	; 0x9b3b
 410:	240a0000 	strcs	r0, [sl]
 414:	3e0b0b00 	vmlacc.f64	d0, d11, d0
 418:	000e030b 	andeq	r0, lr, fp, lsl #6
 41c:	012e0b00 	teqeq	lr, r0, lsl #22
 420:	0b3a0e03 	bleq	e83c34 <_monitor_vecs-0x17d3cc>
 424:	0c270b3b 	stceq	11, cr0, [r7], #-236	; 0xffffff14
 428:	13010b20 	movwne	r0, #6944	; 0x1b20
 42c:	050c0000 	streq	r0, [ip]
 430:	3a080300 	bcc	201038 <_monitor_vecs-0xdfffc8>
 434:	490b3b0b 	stmdbmi	fp, {r0, r1, r3, r8, r9, fp, ip, sp}
 438:	0d000013 	stceq	0, cr0, [r0, #-76]	; 0xffffffb4
 43c:	0e030034 	mcreq	0, 0, r0, cr3, cr4, {1}
 440:	0b3b0b3a 	bleq	ec3130 <_monitor_vecs-0x13ded0>
 444:	00001349 	andeq	r1, r0, r9, asr #6
 448:	0300340e 	movweq	r3, #1038	; 0x40e
 44c:	3b0b3a08 	blcc	2cec74 <_monitor_vecs-0xd3238c>
 450:	0013490b 	andseq	r4, r3, fp, lsl #18
 454:	000f0f00 	andeq	r0, pc, r0, lsl #30
 458:	13490b0b 	movtne	r0, #39691	; 0x9b0b
 45c:	26100000 	ldrcs	r0, [r0], -r0
 460:	00134900 	andseq	r4, r3, r0, lsl #18
 464:	012e1100 	teqeq	lr, r0, lsl #2
 468:	0e030c3f 	mcreq	12, 0, r0, cr3, cr15, {1}
 46c:	0b3b0b3a 	bleq	ec315c <_monitor_vecs-0x13dea4>
 470:	13490c27 	movtne	r0, #39975	; 0x9c27
 474:	01120111 	tsteq	r2, r1, lsl r1
 478:	13010640 	movwne	r0, #5696	; 0x1640
 47c:	05120000 	ldreq	r0, [r2]
 480:	3a080300 	bcc	201088 <_monitor_vecs-0xdfff78>
 484:	490b3b0b 	stmdbmi	fp, {r0, r1, r3, r8, r9, fp, ip, sp}
 488:	00060213 	andeq	r0, r6, r3, lsl r2
 48c:	011d1300 	tsteq	sp, r0, lsl #6
 490:	01521331 	cmpeq	r2, r1, lsr r3
 494:	0b580655 	bleq	1601df0 <__bug_end+0x5fbe6c>
 498:	13010b59 	movwne	r0, #7001	; 0x1b59
 49c:	0b140000 	bleq	5004a4 <_monitor_vecs-0xb00b5c>
 4a0:	00065501 	andeq	r5, r6, r1, lsl #10
 4a4:	00341500 	eorseq	r1, r4, r0, lsl #10
 4a8:	06021331 			; <UNDEFINED> instruction: 0x06021331
 4ac:	1d160000 	ldcne	0, cr0, [r6]
 4b0:	11133101 	tstne	r3, r1, lsl #2
 4b4:	58011201 	stmdapl	r1, {r0, r9, ip}
 4b8:	010b590b 	tsteq	fp, fp, lsl #18
 4bc:	17000013 	smladne	r0, r3, r0, r0
 4c0:	13310005 	teqne	r1, #5
 4c4:	00000602 	andeq	r0, r0, r2, lsl #12
 4c8:	31011d18 	tstcc	r1, r8, lsl sp
 4cc:	12011113 	andne	r1, r1, #-1073741820	; 0xc0000004
 4d0:	590b5801 	stmdbpl	fp, {r0, fp, ip, lr}
 4d4:	1900000b 	stmdbne	r0, {r0, r1, r3}
 4d8:	13310005 	teqne	r1, #5
 4dc:	00000a02 	andeq	r0, r0, r2, lsl #20
 4e0:	31011d1a 	tstcc	r1, sl, lsl sp
 4e4:	55015213 	strpl	r5, [r1, #-531]	; 0x213
 4e8:	590b5806 	stmdbpl	fp, {r1, r2, fp, ip, lr}
 4ec:	1b00000b 	blne	520 <_monitor_vecs-0x1000ae0>
 4f0:	13310034 	teqne	r1, #52	; 0x34
 4f4:	00000a02 	andeq	r0, r0, r2, lsl #20
 4f8:	3100051c 	tstcc	r0, ip, lsl r5
 4fc:	00061c13 	andeq	r1, r6, r3, lsl ip
 500:	00051d00 	andeq	r1, r5, r0, lsl #26
 504:	0b1c1331 	bleq	7051d0 <_monitor_vecs-0x8fbe30>
 508:	2e1e0000 	cdpcs	0, 1, cr0, cr14, cr0, {0}
 50c:	030c3f01 	movweq	r3, #52993	; 0xcf01
 510:	3b0b3a0e 	blcc	2ced50 <_monitor_vecs-0xd322b0>
 514:	490c270b 	stmdbmi	ip, {r0, r1, r3, r8, r9, sl, sp}
 518:	12011113 	andne	r1, r1, #-1073741820	; 0xc0000004
 51c:	00064001 	andeq	r4, r6, r1
 520:	00051f00 	andeq	r1, r5, r0, lsl #30
 524:	0b3a0e03 	bleq	e83d38 <_monitor_vecs-0x17d2c8>
 528:	13490b3b 	movtne	r0, #39739	; 0x9b3b
 52c:	00000602 	andeq	r0, r0, r2, lsl #12
 530:	03003420 	movweq	r3, #1056	; 0x420
 534:	3b0b3a08 	blcc	2ced5c <_monitor_vecs-0xd322a4>
 538:	0213490b 	andseq	r4, r3, #180224	; 0x2c000
 53c:	00000006 	andeq	r0, r0, r6
 540:	10001101 	andne	r1, r0, r1, lsl #2
 544:	03065506 	movweq	r5, #25862	; 0x6506
 548:	25081b08 	strcs	r1, [r8, #-2824]	; 0xb08
 54c:	00051308 	andeq	r1, r5, r8, lsl #6
 550:	11010000 	mrsne	r0, (UNDEF: 1)
 554:	130e2501 	movwne	r2, #58625	; 0xe501
 558:	1b0e030b 	blne	38118c <_monitor_vecs-0xc7fe74>
 55c:	1201110e 	andne	r1, r1, #-2147483645	; 0x80000003
 560:	00061001 	andeq	r1, r6, r1
 564:	000f0200 	andeq	r0, pc, r0, lsl #4
 568:	13490b0b 	movtne	r0, #39691	; 0x9b0b
 56c:	26030000 	strcs	r0, [r3], -r0
 570:	00134900 	andseq	r4, r3, r0, lsl #18
 574:	00240400 	eoreq	r0, r4, r0, lsl #8
 578:	0b3e0b0b 	bleq	f831ac <_monitor_vecs-0x7de54>
 57c:	00000e03 	andeq	r0, r0, r3, lsl #28
 580:	0b010405 	bleq	4159c <_monitor_vecs-0xfbfa64>
 584:	3b0b3a0b 	blcc	2cedb8 <_monitor_vecs-0xd32248>
 588:	0013010b 	andseq	r0, r3, fp, lsl #2
 58c:	00280600 	eoreq	r0, r8, r0, lsl #12
 590:	0d1c0803 	ldceq	8, cr0, [ip, #-12]
 594:	28070000 	stmdacs	r7, {}	; <UNPREDICTABLE>
 598:	1c0e0300 	stcne	3, cr0, [lr], {0}
 59c:	0800000d 	stmdaeq	r0, {r0, r2, r3}
 5a0:	0e030113 	mcreq	1, 0, r0, cr3, cr3, {0}
 5a4:	0b3a0b0b 	bleq	e831d8 <_monitor_vecs-0x17de28>
 5a8:	13010b3b 	movwne	r0, #6971	; 0x1b3b
 5ac:	0d090000 	stceq	0, cr0, [r9]
 5b0:	3a080300 	bcc	2011b8 <_monitor_vecs-0xdffe48>
 5b4:	490b3b0b 	stmdbmi	fp, {r0, r1, r3, r8, r9, fp, ip, sp}
 5b8:	000a3813 	andeq	r3, sl, r3, lsl r8
 5bc:	01010a00 	tsteq	r1, r0, lsl #20
 5c0:	13011349 	movwne	r1, #4937	; 0x1349
 5c4:	210b0000 	mrscs	r0, (UNDEF: 11)
 5c8:	2f134900 	svccs	0x00134900
 5cc:	0c00000b 	stceq	0, cr0, [r0], {11}
 5d0:	0e030016 	mcreq	0, 0, r0, cr3, cr6, {0}
 5d4:	0b3b0b3a 	bleq	ec32c4 <_monitor_vecs-0x13dd3c>
 5d8:	00001349 	andeq	r1, r0, r9, asr #6
 5dc:	03000d0d 	movweq	r0, #3341	; 0xd0d
 5e0:	3b0b3a0e 	blcc	2cee20 <_monitor_vecs-0xd321e0>
 5e4:	3813490b 	ldmdacc	r3, {r0, r1, r3, r8, fp, lr}
 5e8:	0e00000a 	cdpeq	0, 0, cr0, cr0, cr10, {0}
 5ec:	0e030113 	mcreq	1, 0, r0, cr3, cr3, {0}
 5f0:	0b3a0b0b 	bleq	e83224 <_monitor_vecs-0x17dddc>
 5f4:	1301053b 	movwne	r0, #5435	; 0x153b
 5f8:	0d0f0000 	stceq	0, cr0, [pc]	; 600 <_monitor_vecs-0x1000a00>
 5fc:	3a080300 	bcc	201204 <_monitor_vecs-0xdffdfc>
 600:	49053b0b 	stmdbmi	r5, {r0, r1, r3, r8, r9, fp, ip, sp}
 604:	000a3813 	andeq	r3, sl, r3, lsl r8
 608:	000d1000 	andeq	r1, sp, r0
 60c:	0b3a0e03 	bleq	e83e20 <_monitor_vecs-0x17d1e0>
 610:	1349053b 	movtne	r0, #38203	; 0x953b
 614:	00000a38 	andeq	r0, r0, r8, lsr sl
 618:	27011511 	smladcs	r1, r1, r5, r1
 61c:	0113490c 	tsteq	r3, ip, lsl #18
 620:	12000013 	andne	r0, r0, #19
 624:	13490005 	movtne	r0, #36869	; 0x9005
 628:	24130000 	ldrcs	r0, [r3]
 62c:	3e0b0b00 	vmlacc.f64	d0, d11, d0
 630:	0008030b 	andeq	r0, r8, fp, lsl #6
 634:	002e1400 	eoreq	r1, lr, r0, lsl #8
 638:	0b3a0e03 	bleq	e83e4c <_monitor_vecs-0x17d1b4>
 63c:	0c270b3b 	stceq	11, cr0, [r7], #-236	; 0xffffff14
 640:	00000b20 	andeq	r0, r0, r0, lsr #22
 644:	03012e15 	movweq	r2, #7701	; 0x1e15
 648:	3b0b3a0e 	blcc	2cee88 <_monitor_vecs-0xd32178>
 64c:	200c270b 	andcs	r2, ip, fp, lsl #14
 650:	0013010b 	andseq	r0, r3, fp, lsl #2
 654:	00051600 	andeq	r1, r5, r0, lsl #12
 658:	0b3a0e03 	bleq	e83e6c <_monitor_vecs-0x17d194>
 65c:	13490b3b 	movtne	r0, #39739	; 0x9b3b
 660:	05170000 	ldreq	r0, [r7]
 664:	3a080300 	bcc	20126c <_monitor_vecs-0xdffd94>
 668:	490b3b0b 	stmdbmi	fp, {r0, r1, r3, r8, r9, fp, ip, sp}
 66c:	18000013 	stmdane	r0, {r0, r1, r4}
 670:	0e03012e 	adfeqsp	f0, f3, #0.5
 674:	0b3b0b3a 	bleq	ec3364 <_monitor_vecs-0x13dc9c>
 678:	13490c27 	movtne	r0, #39975	; 0x9c27
 67c:	13010b20 	movwne	r0, #6944	; 0x1b20
 680:	2e190000 	cdpcs	0, 1, cr0, cr9, cr0, {0}
 684:	3a0e0301 	bcc	381290 <_monitor_vecs-0xc7fd70>
 688:	27053b0b 	strcs	r3, [r5, -fp, lsl #22]
 68c:	2013490c 	andscs	r4, r3, ip, lsl #18
 690:	0013010b 	andseq	r0, r3, fp, lsl #2
 694:	00051a00 	andeq	r1, r5, r0, lsl #20
 698:	0b3a0803 	bleq	e826ac <_monitor_vecs-0x17e954>
 69c:	1349053b 	movtne	r0, #38203	; 0x953b
 6a0:	051b0000 	ldreq	r0, [fp]
 6a4:	3a0e0300 	bcc	3812ac <_monitor_vecs-0xc7fd54>
 6a8:	49053b0b 	stmdbmi	r5, {r0, r1, r3, r8, r9, fp, ip, sp}
 6ac:	1c000013 	stcne	0, cr0, [r0], {19}
 6b0:	08030034 	stmdaeq	r3, {r2, r4, r5}
 6b4:	0b3b0b3a 	bleq	ec33a4 <_monitor_vecs-0x13dc5c>
 6b8:	00001349 	andeq	r1, r0, r9, asr #6
 6bc:	0300341d 	movweq	r3, #1053	; 0x41d
 6c0:	3b0b3a0e 	blcc	2cef00 <_monitor_vecs-0xd32100>
 6c4:	0013490b 	andseq	r4, r3, fp, lsl #18
 6c8:	00341e00 	eorseq	r1, r4, r0, lsl #28
 6cc:	0b3a0803 	bleq	e826e0 <_monitor_vecs-0x17e920>
 6d0:	1349053b 	movtne	r0, #38203	; 0x953b
 6d4:	2e1f0000 	cdpcs	0, 1, cr0, cr15, cr0, {0}
 6d8:	3a0e0301 	bcc	3812e4 <_monitor_vecs-0xc7fd1c>
 6dc:	27053b0b 	strcs	r3, [r5, -fp, lsl #22]
 6e0:	010b200c 	tsteq	fp, ip
 6e4:	20000013 	andcs	r0, r0, r3, lsl r0
 6e8:	0000010b 	andeq	r0, r0, fp, lsl #2
 6ec:	03003421 	movweq	r3, #1057	; 0x421
 6f0:	3b0b3a0e 	blcc	2cef30 <_monitor_vecs-0xd320d0>
 6f4:	00134905 	andseq	r4, r3, r5, lsl #18
 6f8:	002e2200 	eoreq	r2, lr, r0, lsl #4
 6fc:	0b3a0e03 	bleq	e83f10 <_monitor_vecs-0x17d0f0>
 700:	0c27053b 	cfstr32eq	mvfx0, [r7], #-236	; 0xffffff14
 704:	00000b20 	andeq	r0, r0, r0, lsr #22
 708:	03012e23 	movweq	r2, #7715	; 0x1e23
 70c:	3b0b3a0e 	blcc	2cef4c <_monitor_vecs-0xd320b4>
 710:	490c270b 	stmdbmi	ip, {r0, r1, r3, r8, r9, sl, sp}
 714:	12011113 	andne	r1, r1, #-1073741820	; 0xc0000004
 718:	01064001 	tsteq	r6, r1
 71c:	24000013 	strcs	r0, [r0], #-19
 720:	08030005 	stmdaeq	r3, {r0, r2}
 724:	0b3b0b3a 	bleq	ec3414 <_monitor_vecs-0x13dbec>
 728:	06021349 	streq	r1, [r2], -r9, asr #6
 72c:	34250000 	strtcc	r0, [r5]
 730:	3a080300 	bcc	201338 <_monitor_vecs-0xdffcc8>
 734:	490b3b0b 	stmdbmi	fp, {r0, r1, r3, r8, r9, fp, ip, sp}
 738:	000a0213 	andeq	r0, sl, r3, lsl r2
 73c:	00342600 	eorseq	r2, r4, r0, lsl #12
 740:	0b3a0e03 	bleq	e83f54 <_monitor_vecs-0x17d0ac>
 744:	13490b3b 	movtne	r0, #39739	; 0x9b3b
 748:	00000a02 	andeq	r0, r0, r2, lsl #20
 74c:	03003427 	movweq	r3, #1063	; 0x427
 750:	3b0b3a08 	blcc	2cef78 <_monitor_vecs-0xd32088>
 754:	0213490b 	andseq	r4, r3, #180224	; 0x2c000
 758:	28000006 	stmdacs	r0, {r1, r2}
 75c:	1331011d 	teqne	r1, #1073741831	; 0x40000007
 760:	01120111 	tsteq	r2, r1, lsl r1
 764:	0b590b58 	bleq	16434cc <__bug_end+0x63d548>
 768:	05290000 	streq	r0, [r9]!
 76c:	1c133100 	ldfnes	f3, [r3], {0}
 770:	2a00000b 	bcs	7a4 <_monitor_vecs-0x100085c>
 774:	13310005 	teqne	r1, #5
 778:	00000a02 	andeq	r0, r0, r2, lsl #20
 77c:	11010b2b 	tstne	r1, fp, lsr #22
 780:	00011201 	andeq	r1, r1, r1, lsl #4
 784:	00342c00 	eorseq	r2, r4, r0, lsl #24
 788:	06021331 			; <UNDEFINED> instruction: 0x06021331
 78c:	2e2d0000 	cdpcs	0, 2, cr0, cr13, cr0, {0}
 790:	3a0e0301 	bcc	38139c <_monitor_vecs-0xc7fc64>
 794:	27053b0b 	strcs	r3, [r5, -fp, lsl #22]
 798:	1113490c 	tstne	r3, ip, lsl #18
 79c:	40011201 	andmi	r1, r1, r1, lsl #4
 7a0:	00130106 	andseq	r0, r3, r6, lsl #2
 7a4:	00052e00 	andeq	r2, r5, r0, lsl #28
 7a8:	0b3a0e03 	bleq	e83fbc <_monitor_vecs-0x17d044>
 7ac:	1349053b 	movtne	r0, #38203	; 0x953b
 7b0:	00000602 	andeq	r0, r0, r2, lsl #12
 7b4:	0300052f 	movweq	r0, #1327	; 0x52f
 7b8:	3b0b3a08 	blcc	2cefe0 <_monitor_vecs-0xd32020>
 7bc:	02134905 	andseq	r4, r3, #81920	; 0x14000
 7c0:	30000006 	andcc	r0, r0, r6
 7c4:	0e030034 	mcreq	0, 0, r0, cr3, cr4, {1}
 7c8:	053b0b3a 	ldreq	r0, [fp, #-2874]!	; 0xb3a
 7cc:	0a021349 	beq	854f8 <_monitor_vecs-0xf7bb08>
 7d0:	34310000 	ldrtcc	r0, [r1]
 7d4:	3a080300 	bcc	2013dc <_monitor_vecs-0xdffc24>
 7d8:	49053b0b 	stmdbmi	r5, {r0, r1, r3, r8, r9, fp, ip, sp}
 7dc:	00060213 	andeq	r0, r6, r3, lsl r2
 7e0:	011d3200 	tsteq	sp, r0, lsl #4
 7e4:	01111331 	tsteq	r1, r1, lsr r3
 7e8:	0b580112 	bleq	1600c38 <__bug_end+0x5facb4>
 7ec:	00000559 	andeq	r0, r0, r9, asr r5
 7f0:	31000533 	tstcc	r0, r3, lsr r5
 7f4:	00060213 	andeq	r0, r6, r3, lsl r2
 7f8:	00343400 	eorseq	r3, r4, r0, lsl #8
 7fc:	0b3a0e03 	bleq	e84010 <_monitor_vecs-0x17cff0>
 800:	1349053b 	movtne	r0, #38203	; 0x953b
 804:	00000602 	andeq	r0, r0, r2, lsl #12
 808:	03003435 	movweq	r3, #1077	; 0x435
 80c:	3b0b3a08 	blcc	2cf034 <_monitor_vecs-0xd31fcc>
 810:	02134905 	andseq	r4, r3, #81920	; 0x14000
 814:	3600000a 	strcc	r0, [r0], -sl
 818:	0803000a 	stmdaeq	r3, {r1, r3}
 81c:	053b0b3a 	ldreq	r0, [fp, #-2874]!	; 0xb3a
 820:	00000111 	andeq	r0, r0, r1, lsl r1
 824:	03012e37 	movweq	r2, #7735	; 0x1e37
 828:	3b0b3a0e 	blcc	2cf068 <_monitor_vecs-0xd31f98>
 82c:	490c2705 	stmdbmi	ip, {r0, r2, r8, r9, sl, sp}
 830:	12011113 	andne	r1, r1, #-1073741820	; 0xc0000004
 834:	010a4001 	tsteq	sl, r1
 838:	38000013 	stmdacc	r0, {r0, r1, r4}
 83c:	0e03012e 	adfeqsp	f0, f3, #0.5
 840:	0b3b0b3a 	bleq	ec3530 <_monitor_vecs-0x13dad0>
 844:	01110c27 	tsteq	r1, r7, lsr #24
 848:	06400112 			; <UNDEFINED> instruction: 0x06400112
 84c:	00001301 	andeq	r1, r0, r1, lsl #6
 850:	31001d39 	tstcc	r0, r9, lsr sp
 854:	55015213 	strpl	r5, [r1, #-531]	; 0x213
 858:	590b5806 	stmdbpl	fp, {r1, r2, fp, ip, lr}
 85c:	3a00000b 	bcc	890 <_monitor_vecs-0x1000770>
 860:	1331001d 	teqne	r1, #29
 864:	01120111 	tsteq	r2, r1, lsl r1
 868:	0b590b58 	bleq	16435d0 <__bug_end+0x63d64c>
 86c:	1d3b0000 	ldcne	0, cr0, [fp]
 870:	11133101 	tstne	r3, r1, lsl #2
 874:	58011201 	stmdapl	r1, {r0, r9, ip}
 878:	010b590b 	tsteq	fp, fp, lsl #18
 87c:	3c000013 	stccc	0, cr0, [r0], {19}
 880:	1331011d 	teqne	r1, #1073741831	; 0x40000007
 884:	06550152 			; <UNDEFINED> instruction: 0x06550152
 888:	05590b58 	ldrbeq	r0, [r9, #-2904]	; 0xb58
 88c:	00001301 	andeq	r1, r0, r1, lsl #6
 890:	55010b3d 	strpl	r0, [r1, #-2877]	; 0xb3d
 894:	3e000006 	cdpcc	0, 0, cr0, cr0, cr6, {0}
 898:	1331011d 	teqne	r1, #1073741831	; 0x40000007
 89c:	06550152 			; <UNDEFINED> instruction: 0x06550152
 8a0:	05590b58 	ldrbeq	r0, [r9, #-2904]	; 0xb58
 8a4:	1d3f0000 	ldcne	0, cr0, [pc]	; 8ac <_monitor_vecs-0x1000754>
 8a8:	11133101 	tstne	r3, r1, lsl #2
 8ac:	58011201 	stmdapl	r1, {r0, r9, ip}
 8b0:	0105590b 	tsteq	r5, fp, lsl #18
 8b4:	40000013 	andmi	r0, r0, r3, lsl r0
 8b8:	13310005 	teqne	r1, #5
 8bc:	1d410000 	stclne	0, cr0, [r1]
 8c0:	11133100 	tstne	r3, r0, lsl #2
 8c4:	58011201 	stmdapl	r1, {r0, r9, ip}
 8c8:	0005590b 	andeq	r5, r5, fp, lsl #18
 8cc:	00344200 	eorseq	r4, r4, r0, lsl #4
 8d0:	0a021331 	beq	8559c <_monitor_vecs-0xf7ba64>
 8d4:	2e430000 	cdpcs	0, 4, cr0, cr3, cr0, {0}
 8d8:	030c3f00 	movweq	r3, #52992	; 0xcf00
 8dc:	3b0b3a0e 	blcc	2cf11c <_monitor_vecs-0xd31ee4>
 8e0:	110c270b 	tstne	ip, fp, lsl #14
 8e4:	40011201 	andmi	r1, r1, r1, lsl #4
 8e8:	4400000a 	strmi	r0, [r0], #-10
 8ec:	0c3f012e 	ldfeqs	f0, [pc], #-184	; 83c <_monitor_vecs-0x10007c4>
 8f0:	0b3a0e03 	bleq	e84104 <_monitor_vecs-0x17cefc>
 8f4:	0c270b3b 	stceq	11, cr0, [r7], #-236	; 0xffffff14
 8f8:	01111349 	tsteq	r1, r9, asr #6
 8fc:	0a400112 	beq	1000d4c <_monitor_vecs-0x2b4>
 900:	00001301 	andeq	r1, r0, r1, lsl #6
 904:	03000545 	movweq	r0, #1349	; 0x545
 908:	3b0b3a0e 	blcc	2cf148 <_monitor_vecs-0xd31eb8>
 90c:	0213490b 	andseq	r4, r3, #180224	; 0x2c000
 910:	4600000a 	strmi	r0, [r0], -sl
 914:	0b0b000f 	bleq	2c0958 <_monitor_vecs-0xd406a8>
 918:	05470000 	strbeq	r0, [r7]
 91c:	3a0e0300 	bcc	381524 <_monitor_vecs-0xc7fadc>
 920:	490b3b0b 	stmdbmi	fp, {r0, r1, r3, r8, r9, fp, ip, sp}
 924:	00060213 	andeq	r0, r6, r3, lsl r2
 928:	00264800 	eoreq	r4, r6, r0, lsl #16
 92c:	2e490000 	cdpcs	0, 4, cr0, cr9, cr0, {0}
 930:	030c3f01 	movweq	r3, #52993	; 0xcf01
 934:	3b0b3a0e 	blcc	2cf174 <_monitor_vecs-0xd31e8c>
 938:	110c2705 	tstne	ip, r5, lsl #14
 93c:	40011201 	andmi	r1, r1, r1, lsl #4
 940:	00130106 	andseq	r0, r3, r6, lsl #2
 944:	00344a00 	eorseq	r4, r4, r0, lsl #20
 948:	00001331 	andeq	r1, r0, r1, lsr r3
 94c:	3f012e4b 	svccc	0x00012e4b
 950:	3a0e030c 	bcc	381588 <_monitor_vecs-0xc7fa78>
 954:	270b3b0b 	strcs	r3, [fp, -fp, lsl #22]
 958:	1201110c 	andne	r1, r1, #3
 95c:	01064001 	tsteq	r6, r1
 960:	4c000013 	stcmi	0, cr0, [r0], {19}
 964:	13310005 	teqne	r1, #5
 968:	0000061c 	andeq	r0, r0, ip, lsl r6
 96c:	3100054d 	tstcc	r0, sp, asr #10
 970:	000d1c13 	andeq	r1, sp, r3, lsl ip
 974:	00214e00 	eoreq	r4, r1, r0, lsl #28
 978:	052f1349 	streq	r1, [pc, #-841]!	; 637 <_monitor_vecs-0x10009c9>
 97c:	344f0000 	strbcc	r0, [pc], #0	; 984 <_monitor_vecs-0x100067c>
 980:	3a0e0300 	bcc	381588 <_monitor_vecs-0xc7fa78>
 984:	49053b0b 	stmdbmi	r5, {r0, r1, r3, r8, r9, fp, ip, sp}
 988:	3c0c3f13 	stccc	15, cr3, [ip], {19}
 98c:	5000000c 	andpl	r0, r0, ip
 990:	0e030034 	mcreq	0, 0, r0, cr3, cr4, {1}
 994:	053b0b3a 	ldreq	r0, [fp, #-2874]!	; 0xb3a
 998:	0c3f1349 	ldceq	3, cr1, [pc], #-292	; 87c <_monitor_vecs-0x1000784>
 99c:	00000a02 	andeq	r0, r0, r2, lsl #20
 9a0:	01110100 	tsteq	r1, r0, lsl #2
 9a4:	0b130e25 	bleq	4c4240 <_monitor_vecs-0xb3cdc0>
 9a8:	0e1b0e03 	cdpeq	14, 1, cr0, cr11, cr3, {0}
 9ac:	01120111 	tsteq	r2, r1, lsl r1
 9b0:	00000610 	andeq	r0, r0, r0, lsl r6
 9b4:	3f012e02 	svccc	0x00012e02
 9b8:	3a0e030c 	bcc	3815f0 <_monitor_vecs-0xc7fa10>
 9bc:	270b3b0b 	strcs	r3, [fp, -fp, lsl #22]
 9c0:	1201110c 	andne	r1, r1, #3
 9c4:	01064001 	tsteq	r6, r1
 9c8:	03000013 	movweq	r0, #19
 9cc:	08030005 	stmdaeq	r3, {r0, r2}
 9d0:	0b3b0b3a 	bleq	ec36c0 <_monitor_vecs-0x13d940>
 9d4:	06021349 	streq	r1, [r2], -r9, asr #6
 9d8:	34040000 	strcc	r0, [r4]
 9dc:	3a080300 	bcc	2015e4 <_monitor_vecs-0xdffa1c>
 9e0:	490b3b0b 	stmdbmi	fp, {r0, r1, r3, r8, r9, fp, ip, sp}
 9e4:	00060213 	andeq	r0, r6, r3, lsl r2
 9e8:	000f0500 	andeq	r0, pc, r0, lsl #10
 9ec:	13490b0b 	movtne	r0, #39691	; 0x9b0b
 9f0:	26060000 	strcs	r0, [r6], -r0
 9f4:	00134900 	andseq	r4, r3, r0, lsl #18
 9f8:	00240700 	eoreq	r0, r4, r0, lsl #14
 9fc:	0b3e0b0b 	bleq	f83630 <_monitor_vecs-0x7d9d0>
 a00:	00000e03 	andeq	r0, r0, r3, lsl #28
 a04:	03003408 	movweq	r3, #1032	; 0x408
 a08:	3b0b3a0e 	blcc	2cf248 <_monitor_vecs-0xd31db8>
 a0c:	0213490b 	andseq	r4, r3, #180224	; 0x2c000
 a10:	0900000a 	stmdbeq	r0, {r1, r3}
 a14:	13490101 	movtne	r0, #37121	; 0x9101
 a18:	00001301 	andeq	r1, r0, r1, lsl #6
 a1c:	4900210a 	stmdbmi	r0, {r1, r3, r8, sp}
 a20:	000b2f13 	andeq	r2, fp, r3, lsl pc
 a24:	00340b00 	eorseq	r0, r4, r0, lsl #22
 a28:	0b3a0803 	bleq	e82a3c <_monitor_vecs-0x17e5c4>
 a2c:	13490b3b 	movtne	r0, #39739	; 0x9b3b
 a30:	00000a02 	andeq	r0, r0, r2, lsl #20
 a34:	55010b0c 	strpl	r0, [r1, #-2828]	; 0xb0c
 a38:	0d000006 	stceq	0, cr0, [r0, #-24]	; 0xffffffe8
 a3c:	0b0b0024 	bleq	2c0ad4 <_monitor_vecs-0xd4052c>
 a40:	08030b3e 	stmdaeq	r3, {r1, r2, r3, r4, r5, r8, r9, fp}
 a44:	01000000 	mrseq	r0, (UNDEF: 0)
 a48:	0e250111 	mcreq	1, 1, r0, cr5, cr1, {0}
 a4c:	0e030b13 	vmoveq.32	d3[0], r0
 a50:	01110e1b 	tsteq	r1, fp, lsl lr
 a54:	06100112 			; <UNDEFINED> instruction: 0x06100112
 a58:	16020000 	strne	r0, [r2], -r0
 a5c:	3a0e0300 	bcc	381664 <_monitor_vecs-0xc7f99c>
 a60:	490b3b0b 	stmdbmi	fp, {r0, r1, r3, r8, r9, fp, ip, sp}
 a64:	03000013 	movweq	r0, #19
 a68:	0b0b0024 	bleq	2c0b00 <_monitor_vecs-0xd40500>
 a6c:	0e030b3e 	vmoveq.16	d3[0], r0
 a70:	0f040000 	svceq	0x00040000
 a74:	490b0b00 	stmdbmi	fp, {r8, r9, fp}
 a78:	05000013 	streq	r0, [r0, #-19]
 a7c:	13490026 	movtne	r0, #36902	; 0x9026
 a80:	2e060000 	cdpcs	0, 0, cr0, cr6, cr0, {0}
 a84:	030c3f01 	movweq	r3, #52993	; 0xcf01
 a88:	3b0b3a0e 	blcc	2cf2c8 <_monitor_vecs-0xd31d38>
 a8c:	490c270b 	stmdbmi	ip, {r0, r1, r3, r8, r9, sl, sp}
 a90:	12011113 	andne	r1, r1, #-1073741820	; 0xc0000004
 a94:	010a4001 	tsteq	sl, r1
 a98:	07000013 	smladeq	r0, r3, r0, r0
 a9c:	08030005 	stmdaeq	r3, {r0, r2}
 aa0:	0b3b0b3a 	bleq	ec3790 <_monitor_vecs-0x13d870>
 aa4:	06021349 	streq	r1, [r2], -r9, asr #6
 aa8:	34080000 	strcc	r0, [r8]
 aac:	3a080300 	bcc	2016b4 <_monitor_vecs-0xdff94c>
 ab0:	490b3b0b 	stmdbmi	fp, {r0, r1, r3, r8, r9, fp, ip, sp}
 ab4:	00060213 	andeq	r0, r6, r3, lsl r2
 ab8:	012e0900 	teqeq	lr, r0, lsl #18
 abc:	0e030c3f 	mcreq	12, 0, r0, cr3, cr15, {1}
 ac0:	0b3b0b3a 	bleq	ec37b0 <_monitor_vecs-0x13d850>
 ac4:	13490c27 	movtne	r0, #39975	; 0x9c27
 ac8:	01120111 	tsteq	r2, r1, lsl r1
 acc:	13010640 	movwne	r0, #5696	; 0x1640
 ad0:	240a0000 	strcs	r0, [sl]
 ad4:	3e0b0b00 	vmlacc.f64	d0, d11, d0
 ad8:	0008030b 	andeq	r0, r8, fp, lsl #6
 adc:	00050b00 	andeq	r0, r5, r0, lsl #22
 ae0:	0b3a0e03 	bleq	e842f4 <_monitor_vecs-0x17cd0c>
 ae4:	13490b3b 	movtne	r0, #39739	; 0x9b3b
 ae8:	00000a02 	andeq	r0, r0, r2, lsl #20
 aec:	0300050c 	movweq	r0, #1292	; 0x50c
 af0:	3b0b3a08 	blcc	2cf318 <_monitor_vecs-0xd31ce8>
 af4:	0213490b 	andseq	r4, r3, #180224	; 0x2c000
 af8:	0d00000a 	stceq	0, cr0, [r0, #-40]	; 0xffffffd8
 afc:	0e030034 	mcreq	0, 0, r0, cr3, cr4, {1}
 b00:	0b3b0b3a 	bleq	ec37f0 <_monitor_vecs-0x13d810>
 b04:	06021349 	streq	r1, [r2], -r9, asr #6
 b08:	0f0e0000 	svceq	0x000e0000
 b0c:	000b0b00 	andeq	r0, fp, r0, lsl #22
 b10:	00260f00 	eoreq	r0, r6, r0, lsl #30
 b14:	Address 0x0000000000000b14 is out of bounds.


Disassembly of section .debug_aranges:

00000000 <.debug_aranges>:
   0:	00000024 	andeq	r0, r0, r4, lsr #32
   4:	00000002 	andeq	r0, r0, r2
   8:	00040000 	andeq	r0, r4, r0
   c:	00000000 	andeq	r0, r0, r0
  10:	01000000 	mrseq	r0, (UNDEF: 0)
  14:	00000020 	andeq	r0, r0, r0, lsr #32
  18:	01002000 	mrseq	r2, (UNDEF: 0)
  1c:	000013fc 	strdeq	r1, [r0], -ip
	...
  28:	0000001c 	andeq	r0, r0, ip, lsl r0
  2c:	005a0002 	subseq	r0, sl, r2
  30:	00040000 	andeq	r0, r4, r0
  34:	00000000 	andeq	r0, r0, r0
  38:	010033fc 	strdeq	r3, [r0, -ip]
  3c:	000002f8 	strdeq	r0, [r0], -r8
	...
  48:	0000001c 	andeq	r0, r0, ip, lsl r0
  4c:	081b0002 	ldmdaeq	fp, {r1}
  50:	00040000 	andeq	r0, r4, r0
  54:	00000000 	andeq	r0, r0, r0
  58:	010036f4 	strdeq	r3, [r0, -r4]
  5c:	00000100 	andeq	r0, r0, r0, lsl #2
	...
  68:	0000001c 	andeq	r0, r0, ip, lsl r0
  6c:	0b380002 	bleq	e0007c <_monitor_vecs-0x200f84>
  70:	00040000 	andeq	r0, r4, r0
  74:	00000000 	andeq	r0, r0, r0
  78:	010037f4 	strdeq	r3, [r0, -r4]
  7c:	000000e4 	andeq	r0, r0, r4, ror #1
	...
  88:	00000024 	andeq	r0, r0, r4, lsr #32
  8c:	0e9a0002 	cdpeq	0, 9, cr0, cr10, cr2, {0}
  90:	00040000 	andeq	r0, r4, r0
  94:	00000000 	andeq	r0, r0, r0
  98:	01001000 	mrseq	r1, (UNDEF: 0)
  9c:	00000020 	andeq	r0, r0, r0, lsr #32
  a0:	010038d8 	ldrdeq	r3, [r0, -r8]
  a4:	00000144 	andeq	r0, r0, r4, asr #2
	...
  b0:	0000001c 	andeq	r0, r0, ip, lsl r0
  b4:	0ef50002 	cdpeq	0, 15, cr0, cr5, cr2, {0}
  b8:	00040000 	andeq	r0, r4, r0
  bc:	00000000 	andeq	r0, r0, r0
  c0:	01003a1c 	tsteq	r0, ip, lsl sl
  c4:	00000c14 	andeq	r0, r0, r4, lsl ip
	...
  d0:	0000001c 	andeq	r0, r0, ip, lsl r0
  d4:	25630002 	strbcs	r0, [r3, #-2]!
  d8:	00040000 	andeq	r0, r4, r0
  dc:	00000000 	andeq	r0, r0, r0
  e0:	01004630 	tsteq	r0, r0, lsr r6
  e4:	000000e8 	andeq	r0, r0, r8, ror #1
	...
  f0:	0000001c 	andeq	r0, r0, ip, lsl r0
  f4:	26b30002 	ldrtcs	r0, [r3], r2
  f8:	00040000 	andeq	r0, r4, r0
  fc:	00000000 	andeq	r0, r0, r0
 100:	01004718 	tsteq	r0, r8, lsl r7
 104:	00000118 	andeq	r0, r0, r8, lsl r1
	...

Disassembly of section .debug_ranges:

00000000 <.debug_ranges>:
   0:	ffffffff 			; <UNDEFINED> instruction: 0xffffffff
   4:	00000000 	andeq	r0, r0, r0
   8:	01000000 	mrseq	r0, (UNDEF: 0)
   c:	01000020 	tsteq	r0, r0, lsr #32
  10:	01002000 	mrseq	r2, (UNDEF: 0)
  14:	010033fc 	strdeq	r3, [r0, -ip]
	...
  20:	000000d0 	ldrdeq	r0, [r0], -r0	; <UNPREDICTABLE>
  24:	000000d8 	ldrdeq	r0, [r0], -r8
  28:	0000012c 	andeq	r0, r0, ip, lsr #2
  2c:	00000190 	muleq	r0, r0, r1
  30:	000000dc 	ldrdeq	r0, [r0], -ip
  34:	00000110 	andeq	r0, r0, r0, lsl r1
	...
  40:	000000d0 	ldrdeq	r0, [r0], -r0	; <UNPREDICTABLE>
  44:	000000d8 	ldrdeq	r0, [r0], -r8
  48:	0000012c 	andeq	r0, r0, ip, lsr #2
  4c:	00000190 	muleq	r0, r0, r1
  50:	000000dc 	ldrdeq	r0, [r0], -ip
  54:	00000110 	andeq	r0, r0, r0, lsl r1
	...
  60:	000000d0 	ldrdeq	r0, [r0], -r0	; <UNPREDICTABLE>
  64:	000000d8 	ldrdeq	r0, [r0], -r8
  68:	000000e4 	andeq	r0, r0, r4, ror #1
  6c:	00000110 	andeq	r0, r0, r0, lsl r1
  70:	000000dc 	ldrdeq	r0, [r0], -ip
  74:	000000e0 	andeq	r0, r0, r0, ror #1
	...
  80:	000000d0 	ldrdeq	r0, [r0], -r0	; <UNPREDICTABLE>
  84:	000000d8 	ldrdeq	r0, [r0], -r8
  88:	000000e4 	andeq	r0, r0, r4, ror #1
  8c:	00000110 	andeq	r0, r0, r0, lsl r1
  90:	000000dc 	ldrdeq	r0, [r0], -ip
  94:	000000e0 	andeq	r0, r0, r0, ror #1
	...
  a0:	00000250 	andeq	r0, r0, r0, asr r2
  a4:	00000258 	andeq	r0, r0, r8, asr r2
  a8:	0000025c 	andeq	r0, r0, ip, asr r2
  ac:	00000260 	andeq	r0, r0, r0, ror #4
	...
  b8:	00000258 	andeq	r0, r0, r8, asr r2
  bc:	0000025c 	andeq	r0, r0, ip, asr r2
  c0:	00000260 	andeq	r0, r0, r0, ror #4
  c4:	0000026c 	andeq	r0, r0, ip, ror #4
	...
  d0:	000002bc 			; <UNDEFINED> instruction: 0x000002bc
  d4:	000002c0 	andeq	r0, r0, r0, asr #5
  d8:	000002c8 	andeq	r0, r0, r8, asr #5
  dc:	000002d4 	ldrdeq	r0, [r0], -r4
	...
  ec:	00000008 	andeq	r0, r0, r8
  f0:	0000001c 	andeq	r0, r0, ip, lsl r0
  f4:	00000020 	andeq	r0, r0, r0, lsr #32
	...
 100:	00000014 	andeq	r0, r0, r4, lsl r0
 104:	00000018 	andeq	r0, r0, r8, lsl r0
 108:	00000030 	andeq	r0, r0, r0, lsr r0
 10c:	00000034 	andeq	r0, r0, r4, lsr r0
	...
 118:	00000060 	andeq	r0, r0, r0, rrx
 11c:	00000068 	andeq	r0, r0, r8, rrx
 120:	00000080 	andeq	r0, r0, r0, lsl #1
 124:	00000084 	andeq	r0, r0, r4, lsl #1
	...
 130:	000000a8 	andeq	r0, r0, r8, lsr #1
 134:	000000ac 	andeq	r0, r0, ip, lsr #1
 138:	000000b0 	strheq	r0, [r0], -r0	; <UNPREDICTABLE>
 13c:	000000b8 	strheq	r0, [r0], -r8
	...
 148:	000000ac 	andeq	r0, r0, ip, lsr #1
 14c:	000000b0 	strheq	r0, [r0], -r0	; <UNPREDICTABLE>
 150:	000000b8 	strheq	r0, [r0], -r8
 154:	000000bc 	strheq	r0, [r0], -ip
	...
 160:	00000004 	andeq	r0, r0, r4
 164:	00000008 	andeq	r0, r0, r8
 168:	0000005c 	andeq	r0, r0, ip, asr r0
 16c:	00000060 	andeq	r0, r0, r0, rrx
 170:	00000044 	andeq	r0, r0, r4, asr #32
 174:	00000048 	andeq	r0, r0, r8, asr #32
 178:	0000000c 	andeq	r0, r0, ip
 17c:	0000003c 	andeq	r0, r0, ip, lsr r0
	...
 188:	00000004 	andeq	r0, r0, r4
 18c:	00000008 	andeq	r0, r0, r8
 190:	0000005c 	andeq	r0, r0, ip, asr r0
 194:	00000060 	andeq	r0, r0, r0, rrx
 198:	00000044 	andeq	r0, r0, r4, asr #32
 19c:	00000048 	andeq	r0, r0, r8, asr #32
 1a0:	0000000c 	andeq	r0, r0, ip
 1a4:	0000003c 	andeq	r0, r0, ip, lsr r0
	...
 1b0:	00000040 	andeq	r0, r0, r0, asr #32
 1b4:	00000044 	andeq	r0, r0, r4, asr #32
 1b8:	00000060 	andeq	r0, r0, r0, rrx
 1bc:	00000090 	muleq	r0, r0, r0
 1c0:	00000048 	andeq	r0, r0, r8, asr #32
 1c4:	0000005c 	andeq	r0, r0, ip, asr r0
	...
 1d0:	00000040 	andeq	r0, r0, r0, asr #32
 1d4:	00000044 	andeq	r0, r0, r4, asr #32
 1d8:	00000060 	andeq	r0, r0, r0, rrx
 1dc:	00000090 	muleq	r0, r0, r0
 1e0:	00000048 	andeq	r0, r0, r8, asr #32
 1e4:	0000005c 	andeq	r0, r0, ip, asr r0
	...
 1f0:	00000058 	andeq	r0, r0, r8, asr r0
 1f4:	0000005c 	andeq	r0, r0, ip, asr r0
 1f8:	00000064 	andeq	r0, r0, r4, rrx
 1fc:	00000070 	andeq	r0, r0, r0, ror r0
	...
 208:	00000054 	andeq	r0, r0, r4, asr r0
 20c:	00000058 	andeq	r0, r0, r8, asr r0
 210:	00000060 	andeq	r0, r0, r0, rrx
 214:	00000064 	andeq	r0, r0, r4, rrx
	...
 220:	ffffffff 			; <UNDEFINED> instruction: 0xffffffff
 224:	00000000 	andeq	r0, r0, r0
 228:	01001000 	mrseq	r1, (UNDEF: 0)
 22c:	01001020 	tsteq	r0, r0, lsr #32
 230:	010038d8 	ldrdeq	r3, [r0, -r8]
 234:	01003a1c 	tsteq	r0, ip, lsl sl
	...
 240:	00000400 	andeq	r0, r0, r0, lsl #8
 244:	00000404 	andeq	r0, r0, r4, lsl #8
 248:	00000410 	andeq	r0, r0, r0, lsl r4
 24c:	00000414 	andeq	r0, r0, r4, lsl r4
	...
 258:	0000043c 	andeq	r0, r0, ip, lsr r4
 25c:	00000458 	andeq	r0, r0, r8, asr r4
 260:	0000046c 	andeq	r0, r0, ip, ror #8
 264:	00000474 	andeq	r0, r0, r4, ror r4
	...
 270:	0000043c 	andeq	r0, r0, ip, lsr r4
 274:	00000458 	andeq	r0, r0, r8, asr r4
 278:	0000046c 	andeq	r0, r0, ip, ror #8
 27c:	00000474 	andeq	r0, r0, r4, ror r4
	...
 288:	00000474 	andeq	r0, r0, r4, ror r4
 28c:	00000498 	muleq	r0, r8, r4
 290:	000004b0 			; <UNDEFINED> instruction: 0x000004b0
 294:	000004bc 			; <UNDEFINED> instruction: 0x000004bc
	...
 2a0:	00000474 	andeq	r0, r0, r4, ror r4
 2a4:	00000498 	muleq	r0, r8, r4
 2a8:	000004b0 			; <UNDEFINED> instruction: 0x000004b0
 2ac:	000004bc 			; <UNDEFINED> instruction: 0x000004bc
	...
 2b8:	000004cc 	andeq	r0, r0, ip, asr #9
 2bc:	000004f0 	strdeq	r0, [r0], -r0	; <UNPREDICTABLE>
 2c0:	00000530 	andeq	r0, r0, r0, lsr r5
 2c4:	00000534 	andeq	r0, r0, r4, lsr r5
	...
 2d0:	000004cc 	andeq	r0, r0, ip, asr #9
 2d4:	000004f0 	strdeq	r0, [r0], -r0	; <UNPREDICTABLE>
 2d8:	00000530 	andeq	r0, r0, r0, lsr r5
 2dc:	00000534 	andeq	r0, r0, r4, lsr r5
	...
 2e8:	00000508 	andeq	r0, r0, r8, lsl #10
 2ec:	0000050c 	andeq	r0, r0, ip, lsl #10
 2f0:	00000518 	andeq	r0, r0, r8, lsl r5
 2f4:	0000051c 	andeq	r0, r0, ip, lsl r5
	...
 300:	0000063c 	andeq	r0, r0, ip, lsr r6
 304:	00000650 	andeq	r0, r0, r0, asr r6
 308:	00000654 	andeq	r0, r0, r4, asr r6
 30c:	00000658 	andeq	r0, r0, r8, asr r6
	...
 318:	0000063c 	andeq	r0, r0, ip, lsr r6
 31c:	00000650 	andeq	r0, r0, r0, asr r6
 320:	00000654 	andeq	r0, r0, r4, asr r6
 324:	00000658 	andeq	r0, r0, r8, asr r6
	...
 330:	000006dc 	ldrdeq	r0, [r0], -ip
 334:	000006e4 	andeq	r0, r0, r4, ror #13
 338:	00000710 	andeq	r0, r0, r0, lsl r7
 33c:	00000718 	andeq	r0, r0, r8, lsl r7
 340:	000006f4 	strdeq	r0, [r0], -r4
 344:	000006fc 	strdeq	r0, [r0], -ip
	...
 350:	000008cc 	andeq	r0, r0, ip, asr #17
 354:	00000940 	andeq	r0, r0, r0, asr #18
 358:	00000978 	andeq	r0, r0, r8, ror r9
 35c:	0000098c 	andeq	r0, r0, ip, lsl #19
	...
 368:	000008d0 	ldrdeq	r0, [r0], -r0	; <UNPREDICTABLE>
 36c:	000008d4 	ldrdeq	r0, [r0], -r4
 370:	00000934 	andeq	r0, r0, r4, lsr r9
 374:	00000940 	andeq	r0, r0, r0, asr #18
 378:	000008e8 	andeq	r0, r0, r8, ror #17
 37c:	00000930 	andeq	r0, r0, r0, lsr r9
	...
 388:	000008d0 	ldrdeq	r0, [r0], -r0	; <UNPREDICTABLE>
 38c:	000008d4 	ldrdeq	r0, [r0], -r4
 390:	00000924 	andeq	r0, r0, r4, lsr #18
 394:	00000928 	andeq	r0, r0, r8, lsr #18
 398:	00000910 	andeq	r0, r0, r0, lsl r9
 39c:	00000918 	andeq	r0, r0, r8, lsl r9
 3a0:	000008e8 	andeq	r0, r0, r8, ror #17
 3a4:	0000090c 	andeq	r0, r0, ip, lsl #18
	...
 3b0:	000008d0 	ldrdeq	r0, [r0], -r0	; <UNPREDICTABLE>
 3b4:	000008d4 	ldrdeq	r0, [r0], -r4
 3b8:	00000924 	andeq	r0, r0, r4, lsr #18
 3bc:	00000928 	andeq	r0, r0, r8, lsr #18
 3c0:	00000910 	andeq	r0, r0, r0, lsl r9
 3c4:	00000918 	andeq	r0, r0, r8, lsl r9
 3c8:	000008e8 	andeq	r0, r0, r8, ror #17
 3cc:	0000090c 	andeq	r0, r0, ip, lsl #18
	...
 3d8:	000009a0 	andeq	r0, r0, r0, lsr #19
 3dc:	000009bc 			; <UNDEFINED> instruction: 0x000009bc
 3e0:	00000b14 	andeq	r0, r0, r4, lsl fp
 3e4:	00000b54 	andeq	r0, r0, r4, asr fp
 3e8:	000009c8 	andeq	r0, r0, r8, asr #19
 3ec:	00000b00 	andeq	r0, r0, r0, lsl #22
	...
 3f8:	000009a0 	andeq	r0, r0, r0, lsr #19
 3fc:	000009a8 	andeq	r0, r0, r8, lsr #19
 400:	00000a14 	andeq	r0, r0, r4, lsl sl
 404:	00000b00 	andeq	r0, r0, r0, lsl #22
 408:	000009fc 	strdeq	r0, [r0], -ip
 40c:	00000a10 	andeq	r0, r0, r0, lsl sl
	...
 418:	000009a0 	andeq	r0, r0, r0, lsr #19
 41c:	000009a8 	andeq	r0, r0, r8, lsr #19
 420:	00000a14 	andeq	r0, r0, r4, lsl sl
 424:	00000b00 	andeq	r0, r0, r0, lsl #22
 428:	000009fc 	strdeq	r0, [r0], -ip
 42c:	00000a10 	andeq	r0, r0, r0, lsl sl
	...
 438:	00000a04 	andeq	r0, r0, r4, lsl #20
 43c:	00000a0c 	andeq	r0, r0, ip, lsl #20
 440:	00000a14 	andeq	r0, r0, r4, lsl sl
 444:	00000a18 	andeq	r0, r0, r8, lsl sl
	...
 450:	000009a0 	andeq	r0, r0, r0, lsr #19
 454:	000009a8 	andeq	r0, r0, r8, lsr #19
 458:	00000ab8 			; <UNDEFINED> instruction: 0x00000ab8
 45c:	00000aec 	andeq	r0, r0, ip, ror #21
	...
 468:	000009a0 	andeq	r0, r0, r0, lsr #19
 46c:	000009a8 	andeq	r0, r0, r8, lsr #19
 470:	00000ab8 			; <UNDEFINED> instruction: 0x00000ab8
 474:	00000aec 	andeq	r0, r0, ip, ror #21
	...
 480:	00000a30 	andeq	r0, r0, r0, lsr sl
 484:	00000a38 	andeq	r0, r0, r8, lsr sl
 488:	00000a48 	andeq	r0, r0, r8, asr #20
 48c:	00000a50 	andeq	r0, r0, r0, asr sl
 490:	00000a3c 	andeq	r0, r0, ip, lsr sl
 494:	00000a40 	andeq	r0, r0, r0, asr #20
	...
 4a0:	00000a40 	andeq	r0, r0, r0, asr #20
 4a4:	00000a48 	andeq	r0, r0, r8, asr #20
 4a8:	00000a60 	andeq	r0, r0, r0, ror #20
 4ac:	00000a64 	andeq	r0, r0, r4, ror #20
 4b0:	00000a50 	andeq	r0, r0, r0, asr sl
 4b4:	00000a58 	andeq	r0, r0, r8, asr sl
	...
 4c0:	00000b64 	andeq	r0, r0, r4, ror #22
 4c4:	00000b68 	andeq	r0, r0, r8, ror #22
 4c8:	00000b94 	muleq	r0, r4, fp
 4cc:	00000bb4 			; <UNDEFINED> instruction: 0x00000bb4
 4d0:	00000b88 	andeq	r0, r0, r8, lsl #23
 4d4:	00000b8c 	andeq	r0, r0, ip, lsl #23
 4d8:	00000b70 	andeq	r0, r0, r0, ror fp
 4dc:	00000b78 	andeq	r0, r0, r8, ror fp
	...
 4e8:	00000b64 	andeq	r0, r0, r4, ror #22
 4ec:	00000b68 	andeq	r0, r0, r8, ror #22
 4f0:	00000b94 	muleq	r0, r4, fp
 4f4:	00000bb4 			; <UNDEFINED> instruction: 0x00000bb4
 4f8:	00000b88 	andeq	r0, r0, r8, lsl #23
 4fc:	00000b8c 	andeq	r0, r0, ip, lsl #23
 500:	00000b70 	andeq	r0, r0, r0, ror fp
 504:	00000b78 	andeq	r0, r0, r8, ror fp
	...
 510:	00000be0 	andeq	r0, r0, r0, ror #23
 514:	00000bf8 	strdeq	r0, [r0], -r8
 518:	00000bfc 	strdeq	r0, [r0], -ip
 51c:	00000c00 	andeq	r0, r0, r0, lsl #24
	...
 528:	00000bf4 	strdeq	r0, [r0], -r4
 52c:	00000bf8 	strdeq	r0, [r0], -r8
 530:	00000bfc 	strdeq	r0, [r0], -ip
 534:	00000c00 	andeq	r0, r0, r0, lsl #24
	...
 540:	000000b0 	strheq	r0, [r0], -r0	; <UNPREDICTABLE>
 544:	000000c8 	andeq	r0, r0, r8, asr #1
 548:	000000cc 	andeq	r0, r0, ip, asr #1
 54c:	000000d0 	ldrdeq	r0, [r0], -r0	; <UNPREDICTABLE>
	...

Disassembly of section .debug_loc:

00000000 <.debug_loc>:
       0:	00000018 	andeq	r0, r0, r8, lsl r0
       4:	0000002c 	andeq	r0, r0, ip, lsr #32
       8:	00530001 	subseq	r0, r3, r1
       c:	00000000 	andeq	r0, r0, r0
      10:	2c000000 	stccs	0, cr0, [r0], {0}
      14:	30000000 	andcc	r0, r0, r0
      18:	02000000 	andeq	r0, r0, #0
      1c:	30007d00 	andcc	r7, r0, r0, lsl #26
      20:	38000000 	stmdacc	r0, {}	; <UNPREDICTABLE>
      24:	02000000 	andeq	r0, r0, #0
      28:	38107d00 	ldmdacc	r0, {r8, sl, fp, ip, sp, lr}
      2c:	c4000000 	strgt	r0, [r0]
      30:	03000000 	movweq	r0, #0
      34:	00d07d00 	sbcseq	r7, r0, r0, lsl #26
	...
      40:	0000002c 	andeq	r0, r0, ip, lsr #32
      44:	00000044 	andeq	r0, r0, r4, asr #32
      48:	44500001 	ldrbmi	r0, [r0], #-1
      4c:	c4000000 	strgt	r0, [r0]
      50:	01000000 	mrseq	r0, (UNDEF: 0)
      54:	00005500 	andeq	r5, r0, r0, lsl #10
      58:	00000000 	andeq	r0, r0, r0
      5c:	00600000 	rsbeq	r0, r0, r0
      60:	00680000 	rsbeq	r0, r8, r0
      64:	00020000 	andeq	r0, r2, r0
      68:	00009f30 	andeq	r9, r0, r0, lsr pc
      6c:	00000000 	andeq	r0, r0, r0
      70:	00cc0000 	sbceq	r0, ip, r0
      74:	00d00000 	sbcseq	r0, r0, r0
      78:	00020000 	andeq	r0, r2, r0
      7c:	00d0007d 	sbcseq	r0, r0, sp, ror r0
      80:	01900000 	orrseq	r0, r0, r0
      84:	00020000 	andeq	r0, r2, r0
      88:	0000107d 	andeq	r1, r0, sp, ror r0
      8c:	00000000 	andeq	r0, r0, r0
      90:	00cc0000 	sbceq	r0, ip, r0
      94:	01140000 	tsteq	r4, r0
      98:	00010000 	andeq	r0, r1, r0
      9c:	00011450 	andeq	r1, r1, r0, asr r4
      a0:	00019000 	andeq	r9, r1, r0
      a4:	55000100 	strpl	r0, [r0, #-256]	; 0x100
	...
      b0:	000000dc 	ldrdeq	r0, [r0], -ip
      b4:	00000114 	andeq	r0, r0, r4, lsl r1
      b8:	14500001 	ldrbne	r0, [r0], #-1
      bc:	90000001 	andls	r0, r0, r1
      c0:	01000001 	tsteq	r0, r1
      c4:	00005500 	andeq	r5, r0, r0, lsl #10
      c8:	00000000 	andeq	r0, r0, r0
      cc:	00e40000 	rsceq	r0, r4, r0
      d0:	01140000 	tsteq	r4, r0
      d4:	00020000 	andeq	r0, r2, r0
      d8:	01143c70 	tsteq	r4, r0, ror ip
      dc:	01170000 	tsteq	r7, r0
      e0:	00020000 	andeq	r0, r2, r0
      e4:	012c3c75 	teqeq	ip, r5, ror ip
      e8:	013b0000 	teqeq	fp, r0
      ec:	00010000 	andeq	r0, r1, r0
      f0:	00000052 	andeq	r0, r0, r2, asr r0
      f4:	00000000 	andeq	r0, r0, r0
      f8:	0000f800 	andeq	pc, r0, r0, lsl #16
      fc:	00010400 	andeq	r0, r1, r0, lsl #8
     100:	54000100 	strpl	r0, [r0], #-256	; 0x100
     104:	00000108 	andeq	r0, r0, r8, lsl #2
     108:	00000110 	andeq	r0, r0, r0, lsl r1
     10c:	2c540001 	mrrccs	0, 0, r0, r4, cr1
     110:	34000001 	strcc	r0, [r0], #-1
     114:	01000001 	tsteq	r0, r1
     118:	00005400 	andeq	r5, r0, r0, lsl #8
     11c:	00000000 	andeq	r0, r0, r0
     120:	01cc0000 	biceq	r0, ip, r0
     124:	01d00000 	bicseq	r0, r0, r0
     128:	00020000 	andeq	r0, r2, r0
     12c:	01d0007d 	bicseq	r0, r0, sp, ror r0
     130:	01f00000 	mvnseq	r0, r0
     134:	00020000 	andeq	r0, r2, r0
     138:	0000087d 	andeq	r0, r0, sp, ror r8
     13c:	00000000 	andeq	r0, r0, r0
     140:	01cc0000 	biceq	r0, ip, r0
     144:	01d80000 	bicseq	r0, r8, r0
     148:	00010000 	andeq	r0, r1, r0
     14c:	0001d850 	andeq	sp, r1, r0, asr r8
     150:	0001f000 	andeq	pc, r1, r0
     154:	54000100 	strpl	r0, [r0], #-256	; 0x100
	...
     160:	000001f0 	strdeq	r0, [r0], -r0	; <UNPREDICTABLE>
     164:	000001f4 	strdeq	r0, [r0], -r4
     168:	00500001 	subseq	r0, r0, r1
     16c:	00000000 	andeq	r0, r0, r0
     170:	fc000000 	stc2	0, cr0, [r0], {0}
     174:	00000001 	andeq	r0, r0, r1
     178:	01000002 	tsteq	r0, r2
     17c:	00005000 	andeq	r5, r0, r0
     180:	00000000 	andeq	r0, r0, r0
     184:	02080000 	andeq	r0, r8, #0
     188:	020c0000 	andeq	r0, ip, #0
     18c:	00020000 	andeq	r0, r2, r0
     190:	020c007d 	andeq	r0, ip, #125	; 0x7d
     194:	02100000 	andseq	r0, r0, #0
     198:	00020000 	andeq	r0, r2, r0
     19c:	0210047d 	andseq	r0, r0, #2097152000	; 0x7d000000
     1a0:	02f80000 	rscseq	r0, r8, #0
     1a4:	00020000 	andeq	r0, r2, r0
     1a8:	0000307d 	andeq	r3, r0, sp, ror r0
     1ac:	00000000 	andeq	r0, r0, r0
     1b0:	02500000 	subseq	r0, r0, #0
     1b4:	02840000 	addeq	r0, r4, #0
     1b8:	00020000 	andeq	r0, r2, r0
     1bc:	02849f30 	addeq	r9, r4, #192	; 0xc0
     1c0:	02880000 	addeq	r0, r8, #0
     1c4:	00010000 	andeq	r0, r1, r0
     1c8:	00028853 	andeq	r8, r2, r3, asr r8
     1cc:	00028c00 	andeq	r8, r2, r0, lsl #24
     1d0:	73000700 	movwvc	r0, #1792	; 0x700
     1d4:	20000a00 	andcs	r0, r0, r0, lsl #20
     1d8:	028c9f21 	addeq	r9, ip, #132	; 0x84
     1dc:	02940000 	addseq	r0, r4, #0
     1e0:	00010000 	andeq	r0, r1, r0
     1e4:	00029453 	andeq	r9, r2, r3, asr r4
     1e8:	00029800 	andeq	r9, r2, r0, lsl #16
     1ec:	53000100 	movwpl	r0, #256	; 0x100
     1f0:	00000298 	muleq	r0, r8, r2
     1f4:	0000029c 	muleq	r0, ip, r2
     1f8:	9c530001 	mrrcls	0, 0, r0, r3, cr1
     1fc:	a0000002 	andge	r0, r0, r2
     200:	01000002 	tsteq	r0, r2
     204:	02a05300 	adceq	r5, r0, #0
     208:	02a40000 	adceq	r0, r4, #0
     20c:	00010000 	andeq	r0, r1, r0
     210:	0002a453 	andeq	sl, r2, r3, asr r4
     214:	0002a800 	andeq	sl, r2, r0, lsl #16
     218:	53000100 	movwpl	r0, #256	; 0x100
     21c:	000002a8 	andeq	r0, r0, r8, lsr #5
     220:	000002ac 	andeq	r0, r0, ip, lsr #5
     224:	ac530001 	mrrcge	0, 0, r0, r3, cr1
     228:	b0000002 	andlt	r0, r0, r2
     22c:	01000002 	tsteq	r0, r2
     230:	02b05300 	adcseq	r5, r0, #0
     234:	02b40000 	adcseq	r0, r4, #0
     238:	00090000 	andeq	r0, r9, r0
     23c:	000c0073 	andeq	r0, ip, r3, ror r0
     240:	21006000 	mrscs	r6, (UNDEF: 0)
     244:	0002b49f 	muleq	r2, pc, r4	; <UNPREDICTABLE>
     248:	0002c400 	andeq	ip, r2, r0, lsl #8
     24c:	53000100 	movwpl	r0, #256	; 0x100
     250:	000002c4 	andeq	r0, r0, r4, asr #5
     254:	000002f8 	strdeq	r0, [r0], -r8
     258:	08710002 	ldmdaeq	r1!, {r1}^
	...
     264:	00000260 	andeq	r0, r0, r0, ror #4
     268:	0000026c 	andeq	r0, r0, ip, ror #4
     26c:	4b080003 	blmi	200280 <_monitor_vecs-0xe00d80>
     270:	0000009f 	muleq	r0, pc, r0	; <UNPREDICTABLE>
     274:	00000000 	andeq	r0, r0, r0
     278:	00027400 	andeq	r7, r2, r0, lsl #8
     27c:	00027c00 	andeq	r7, r2, r0, lsl #24
     280:	08000300 	stmdaeq	r0, {r8, r9}
     284:	00009f4b 	andeq	r9, r0, fp, asr #30
     288:	00000000 	andeq	r0, r0, r0
     28c:	028c0000 	addeq	r0, ip, #0
     290:	02940000 	addseq	r0, r4, #0
     294:	00010000 	andeq	r0, r1, r0
     298:	00029453 	andeq	r9, r2, r3, asr r4
     29c:	0002f800 	andeq	pc, r2, r0, lsl #16
     2a0:	71000200 	mrsvc	r0, R8_usr
	...
     2ac:	0002b400 	andeq	fp, r2, r0, lsl #8
     2b0:	0002c400 	andeq	ip, r2, r0, lsl #8
     2b4:	53000100 	movwpl	r0, #256	; 0x100
     2b8:	000002c4 	andeq	r0, r0, r4, asr #5
     2bc:	000002f8 	strdeq	r0, [r0], -r8
     2c0:	08710002 	ldmdaeq	r1!, {r1}^
	...
     2cc:	000002c8 	andeq	r0, r0, r8, asr #5
     2d0:	000002d4 	ldrdeq	r0, [r0], -r4
     2d4:	400c0006 	andmi	r0, ip, r6
     2d8:	9f017d78 	svcls	0x00017d78
	...
     2e4:	000002d8 	ldrdeq	r0, [r0], -r8
     2e8:	000002e4 	andeq	r0, r0, r4, ror #5
     2ec:	400c0006 	andmi	r0, ip, r6
     2f0:	9f017d78 	svcls	0x00017d78
	...
     300:	00000004 	andeq	r0, r0, r4
     304:	00500001 	subseq	r0, r0, r1
     308:	00000000 	andeq	r0, r0, r0
     30c:	10000000 	andne	r0, r0, r0
     310:	24000000 	strcs	r0, [r0]
     314:	01000000 	mrseq	r0, (UNDEF: 0)
     318:	002c5000 	eoreq	r5, ip, r0
     31c:	00400000 	subeq	r0, r0, r0
     320:	00010000 	andeq	r0, r1, r0
     324:	00000050 	andeq	r0, r0, r0, asr r0
	...
     330:	00000c00 	andeq	r0, r0, r0, lsl #24
     334:	7d000200 	sfmvc	f0, 4, [r0]
     338:	00000c00 	andeq	r0, r0, r0, lsl #24
     33c:	0000a400 	andeq	sl, r0, r0, lsl #8
     340:	7d000200 	sfmvc	f0, 4, [r0]
     344:	00000008 	andeq	r0, r0, r8
	...
     350:	00004400 	andeq	r4, r0, r0, lsl #8
     354:	50000100 	andpl	r0, r0, r0, lsl #2
	...
     360:	00000040 	andeq	r0, r0, r0, asr #32
     364:	00000044 	andeq	r0, r0, r4, asr #32
     368:	00700006 	rsbseq	r0, r0, r6
     36c:	9f1b3a06 	svcls	0x001b3a06
     370:	00000044 	andeq	r0, r0, r4, asr #32
     374:	0000004c 	andeq	r0, r0, ip, asr #32
     378:	00730005 	rsbseq	r0, r3, r5
     37c:	009f1b3a 	addseq	r1, pc, sl, lsr fp	; <UNPREDICTABLE>
     380:	00000000 	andeq	r0, r0, r0
     384:	40000000 	andmi	r0, r0, r0
     388:	44000000 	strmi	r0, [r0]
     38c:	0a000000 	beq	394 <_monitor_vecs-0x1000c6c>
     390:	06007000 	streq	r7, [r0], -r0
     394:	1b14143a 	blne	505484 <_monitor_vecs-0xafbb7c>
     398:	449f1c1e 	ldrmi	r1, [pc], #3102	; 3a0 <_monitor_vecs-0x1000c60>
     39c:	4c000000 	stcmi	0, cr0, [r0], {0}
     3a0:	09000000 	stmdbeq	r0, {}	; <UNPREDICTABLE>
     3a4:	3a007300 	bcc	1cfac <_monitor_vecs-0xfe4054>
     3a8:	1e1b1414 	cfmvrdlne	r1, mvd11
     3ac:	00009f1c 	andeq	r9, r0, ip, lsl pc
     3b0:	00000000 	andeq	r0, r0, r0
     3b4:	00400000 	subeq	r0, r0, r0
     3b8:	00480000 	subeq	r0, r8, r0
     3bc:	00010000 	andeq	r0, r1, r0
     3c0:	00004855 	andeq	r4, r0, r5, asr r8
     3c4:	0000a400 	andeq	sl, r0, r0, lsl #8
     3c8:	54000100 	strpl	r0, [r0], #-256	; 0x100
	...
     3d4:	00000040 	andeq	r0, r0, r0, asr #32
     3d8:	00000044 	andeq	r0, r0, r4, asr #32
     3dc:	0070000d 	rsbseq	r0, r0, sp
     3e0:	231b3a06 	tstcs	fp, #24576	; 0x6000
     3e4:	40a08080 	adcmi	r8, r0, r0, lsl #1
     3e8:	449f2432 	ldrmi	r2, [pc], #1074	; 3f0 <_monitor_vecs-0x1000c10>
     3ec:	4c000000 	stcmi	0, cr0, [r0], {0}
     3f0:	0c000000 	stceq	0, cr0, [r0], {0}
     3f4:	3a007300 	bcc	1cffc <_monitor_vecs-0xfe4004>
     3f8:	8080231b 	addhi	r2, r0, fp, lsl r3
     3fc:	243240a0 	ldrtcs	r4, [r2], #-160	; 0xa0
     400:	0000009f 	muleq	r0, pc, r0	; <UNPREDICTABLE>
     404:	00000000 	andeq	r0, r0, r0
     408:	00004800 	andeq	r4, r0, r0, lsl #16
     40c:	00004c00 	andeq	r4, r0, r0, lsl #24
     410:	73000c00 	movwvc	r0, #3072	; 0xc00
     414:	231b3a00 	tstcs	fp, #0
     418:	40a08080 	adcmi	r8, r0, r0, lsl #1
     41c:	009f2432 	addseq	r2, pc, r2, lsr r4	; <UNPREDICTABLE>
     420:	00000000 	andeq	r0, r0, r0
     424:	64000000 	strvs	r0, [r0]
     428:	70000000 	andvc	r0, r0, r0
     42c:	03000000 	movweq	r0, #0
     430:	9f4b0800 	svcls	0x004b0800
	...
     43c:	00000054 	andeq	r0, r0, r4, asr r0
     440:	00000068 	andeq	r0, r0, r8, rrx
     444:	68510001 	ldmdavs	r1, {r0}^
     448:	8c000000 	stchi	0, cr0, [r0], {0}
     44c:	03000000 	movweq	r0, #0
     450:	01947000 	orrseq	r7, r4, r0
     454:	0000008c 	andeq	r0, r0, ip, lsl #1
     458:	000000a4 	andeq	r0, r0, r4, lsr #1
     45c:	940c0005 	strls	r0, [ip], #-5
     460:	00202000 	eoreq	r2, r0, r0
     464:	00000000 	andeq	r0, r0, r0
     468:	80000000 	andhi	r0, r0, r0
     46c:	88000000 	stmdahi	r0, {}	; <UNPREDICTABLE>
     470:	03000000 	movweq	r0, #0
     474:	9f4b0800 	svcls	0x004b0800
	...
     480:	000000a4 	andeq	r0, r0, r4, lsr #1
     484:	000000a8 	andeq	r0, r0, r8, lsr #1
     488:	007d0002 	rsbseq	r0, sp, r2
     48c:	000000a8 	andeq	r0, r0, r8, lsr #1
     490:	000000e4 	andeq	r0, r0, r4, ror #1
     494:	107d0002 	rsbsne	r0, sp, r2
	...
     4a0:	000000a4 	andeq	r0, r0, r4, lsr #1
     4a4:	000000b8 	strheq	r0, [r0], -r8
     4a8:	dc500001 	mrrcle	0, 0, r0, r0, cr1	; <UNPREDICTABLE>
     4ac:	e0000000 	and	r0, r0, r0
     4b0:	01000000 	mrseq	r0, (UNDEF: 0)
     4b4:	00005000 	andeq	r5, r0, r0
     4b8:	00000000 	andeq	r0, r0, r0
     4bc:	00a40000 	adceq	r0, r4, r0
     4c0:	00b80000 	adcseq	r0, r8, r0
     4c4:	00010000 	andeq	r0, r1, r0
     4c8:	0000b851 	andeq	fp, r0, r1, asr r8
     4cc:	0000e400 	andeq	lr, r0, r0, lsl #8
     4d0:	56000100 	strpl	r0, [r0], -r0, lsl #2
	...
     4dc:	000000a4 	andeq	r0, r0, r4, lsr #1
     4e0:	000000b8 	strheq	r0, [r0], -r8
     4e4:	9f300002 	svcls	0x00300002
     4e8:	000000cc 	andeq	r0, r0, ip, asr #1
     4ec:	000000dc 	ldrdeq	r0, [r0], -ip
     4f0:	dc540001 	mrrcle	0, 0, r0, r4, cr1
     4f4:	e4000000 	str	r0, [r0]
     4f8:	02000000 	andeq	r0, r0, #0
     4fc:	009f3000 	addseq	r3, pc, r0
     500:	00000000 	andeq	r0, r0, r0
     504:	a4000000 	strge	r0, [r0]
     508:	c0000000 	andgt	r0, r0, r0
     50c:	02000000 	andeq	r0, r0, #0
     510:	c09f3000 	addsgt	r3, pc, r0
     514:	cc000000 	stcgt	0, cr0, [r0], {0}
     518:	01000000 	mrseq	r0, (UNDEF: 0)
     51c:	00cc5000 	sbceq	r5, ip, r0
     520:	00e00000 	rsceq	r0, r0, r0
     524:	00020000 	andeq	r0, r2, r0
     528:	00e09f30 	rsceq	r9, r0, r0, lsr pc
     52c:	00e40000 	rsceq	r0, r4, r0
     530:	00010000 	andeq	r0, r1, r0
     534:	00000056 	andeq	r0, r0, r6, asr r0
	...
     540:	00000400 	andeq	r0, r0, r0, lsl #8
     544:	7d000200 	sfmvc	f0, 4, [r0]
     548:	00000400 	andeq	r0, r0, r0, lsl #8
     54c:	00000800 	andeq	r0, r0, r0, lsl #16
     550:	7d000200 	sfmvc	f0, 4, [r0]
     554:	0000081c 	andeq	r0, r0, ip, lsl r8
     558:	0000dc00 	andeq	sp, r0, r0, lsl #24
     55c:	7d000300 	stcvc	3, cr0, [r0]
     560:	000000c0 	andeq	r0, r0, r0, asr #1
	...
     56c:	006c0000 	rsbeq	r0, ip, r0
     570:	00010000 	andeq	r0, r1, r0
     574:	00006c50 	andeq	r6, r0, r0, asr ip
     578:	00007700 	andeq	r7, r0, r0, lsl #14
     57c:	91000200 	mrsls	r0, R8_usr
     580:	00000040 	andeq	r0, r0, r0, asr #32
	...
     58c:	00006800 	andeq	r6, r0, r0, lsl #16
     590:	51000100 	mrspl	r0, (UNDEF: 16)
     594:	00000068 	andeq	r0, r0, r8, rrx
     598:	00000077 	andeq	r0, r0, r7, ror r0
     59c:	44910002 	ldrmi	r0, [r1], #2
	...
     5a8:	00000034 	andeq	r0, r0, r4, lsr r0
     5ac:	0000004c 	andeq	r0, r0, ip, asr #32
     5b0:	9f300002 	svcls	0x00300002
     5b4:	00000060 	andeq	r0, r0, r0, rrx
     5b8:	00000064 	andeq	r0, r0, r4, rrx
     5bc:	00530001 	subseq	r0, r3, r1
     5c0:	00000000 	andeq	r0, r0, r0
     5c4:	34000000 	strcc	r0, [r0]
     5c8:	4c000000 	stcmi	0, cr0, [r0], {0}
     5cc:	02000000 	andeq	r0, r0, #0
     5d0:	609f3000 	addsvs	r3, pc, r0
     5d4:	64000000 	strvs	r0, [r0]
     5d8:	01000000 	mrseq	r0, (UNDEF: 0)
     5dc:	00005200 	andeq	r5, r0, r0, lsl #4
     5e0:	00000000 	andeq	r0, r0, r0
     5e4:	00780000 	rsbseq	r0, r8, r0
     5e8:	008c0000 	addeq	r0, ip, r0
     5ec:	00010000 	andeq	r0, r1, r0
     5f0:	0000005d 	andeq	r0, r0, sp, asr r0
     5f4:	00000000 	andeq	r0, r0, r0
     5f8:	00008c00 	andeq	r8, r0, r0, lsl #24
     5fc:	00009c00 	andeq	r9, r0, r0, lsl #24
     600:	57000100 	strpl	r0, [r0, -r0, lsl #2]
     604:	0000009c 	muleq	r0, ip, r0
     608:	000000a0 	andeq	r0, r0, r0, lsr #1
     60c:	a0550001 	subsge	r0, r5, r1
     610:	a4000000 	strge	r0, [r0]
     614:	03000000 	movweq	r0, #0
     618:	9f7f7500 	svcls	0x007f7500
     61c:	000000a4 	andeq	r0, r0, r4, lsr #1
     620:	000000bc 	strheq	r0, [r0], -ip
     624:	00550001 	subseq	r0, r5, r1
     628:	00000000 	andeq	r0, r0, r0
     62c:	78000000 	stmdavc	r0, {}	; <UNPREDICTABLE>
     630:	8c000000 	stchi	0, cr0, [r0], {0}
     634:	02000000 	andeq	r0, r0, #0
     638:	8c9f3000 	ldchi	0, cr3, [pc], {0}
     63c:	9c000000 	stcls	0, cr0, [r0], {0}
     640:	01000000 	mrseq	r0, (UNDEF: 0)
     644:	00bc5800 	adcseq	r5, ip, r0, lsl #16
     648:	00dc0000 	sbcseq	r0, ip, r0
     64c:	00010000 	andeq	r0, r1, r0
     650:	00000058 	andeq	r0, r0, r8, asr r0
     654:	00000000 	andeq	r0, r0, r0
     658:	0000dc00 	andeq	sp, r0, r0, lsl #24
     65c:	0000e000 	andeq	lr, r0, r0
     660:	7d000200 	sfmvc	f0, 4, [r0]
     664:	0000e000 	andeq	lr, r0, r0
     668:	0000e800 	andeq	lr, r0, r0, lsl #16
     66c:	7d000200 	sfmvc	f0, 4, [r0]
     670:	0000e804 	andeq	lr, r0, r4, lsl #16
     674:	00012800 	andeq	r2, r1, r0, lsl #16
     678:	7d000200 	sfmvc	f0, 4, [r0]
     67c:	00000010 	andeq	r0, r0, r0, lsl r0
     680:	00000000 	andeq	r0, r0, r0
     684:	0000dc00 	andeq	sp, r0, r0, lsl #24
     688:	0000f000 	andeq	pc, r0, r0
     68c:	50000100 	andpl	r0, r0, r0, lsl #2
	...
     698:	000000dc 	ldrdeq	r0, [r0], -ip
     69c:	0000010b 	andeq	r0, r0, fp, lsl #2
     6a0:	00510001 	subseq	r0, r1, r1
     6a4:	00000000 	andeq	r0, r0, r0
     6a8:	28000000 	stmdacs	r0, {}	; <UNPREDICTABLE>
     6ac:	2c000001 	stccs	0, cr0, [r0], {1}
     6b0:	02000001 	andeq	r0, r0, #1
     6b4:	2c007d00 	stccs	13, cr7, [r0], {0}
     6b8:	30000001 	andcc	r0, r0, r1
     6bc:	02000001 	andeq	r0, r0, #1
     6c0:	30087d00 	andcc	r7, r8, r0, lsl #26
     6c4:	58000001 	stmdapl	r0, {r0}
     6c8:	02000001 	andeq	r0, r0, #1
     6cc:	00107d00 	andseq	r7, r0, r0, lsl #26
     6d0:	00000000 	andeq	r0, r0, r0
     6d4:	28000000 	stmdacs	r0, {}	; <UNPREDICTABLE>
     6d8:	40000001 	andmi	r0, r0, r1
     6dc:	01000001 	tsteq	r0, r1
     6e0:	00005000 	andeq	r5, r0, r0
     6e4:	00000000 	andeq	r0, r0, r0
     6e8:	01280000 	teqeq	r8, r0
     6ec:	01430000 	mrseq	r0, (UNDEF: 67)
     6f0:	00010000 	andeq	r0, r1, r0
     6f4:	00000051 	andeq	r0, r0, r1, asr r0
     6f8:	00000000 	andeq	r0, r0, r0
     6fc:	00015800 	andeq	r5, r1, r0, lsl #16
     700:	00015c00 	andeq	r5, r1, r0, lsl #24
     704:	7d000200 	sfmvc	f0, 4, [r0]
     708:	00015c00 	andeq	r5, r1, r0, lsl #24
     70c:	00016400 	andeq	r6, r1, r0, lsl #8
     710:	7d000200 	sfmvc	f0, 4, [r0]
     714:	00016404 	andeq	r6, r1, r4, lsl #8
     718:	00019400 	andeq	r9, r1, r0, lsl #8
     71c:	7d000200 	sfmvc	f0, 4, [r0]
     720:	00000018 	andeq	r0, r0, r8, lsl r0
     724:	00000000 	andeq	r0, r0, r0
     728:	00015800 	andeq	r5, r1, r0, lsl #16
     72c:	00016c00 	andeq	r6, r1, r0, lsl #24
     730:	50000100 	andpl	r0, r0, r0, lsl #2
	...
     73c:	00000158 	andeq	r0, r0, r8, asr r1
     740:	0000016c 	andeq	r0, r0, ip, ror #2
     744:	00510001 	subseq	r0, r1, r1
     748:	00000000 	andeq	r0, r0, r0
     74c:	94000000 	strls	r0, [r0]
     750:	98000001 	stmdals	r0, {r0}
     754:	02000001 	andeq	r0, r0, #1
     758:	98007d00 	stmdals	r0, {r8, sl, fp, ip, sp, lr}
     75c:	a0000001 	andge	r0, r0, r1
     760:	02000001 	andeq	r0, r0, #1
     764:	a0087d00 	andge	r7, r8, r0, lsl #26
     768:	c8000001 	stmdagt	r0, {r0}
     76c:	02000001 	andeq	r0, r0, #1
     770:	00107d00 	andseq	r7, r0, r0, lsl #26
     774:	00000000 	andeq	r0, r0, r0
     778:	94000000 	strls	r0, [r0]
     77c:	ac000001 	stcge	0, cr0, [r0], {1}
     780:	01000001 	tsteq	r0, r1
     784:	00005000 	andeq	r5, r0, r0
     788:	00000000 	andeq	r0, r0, r0
     78c:	01940000 	orrseq	r0, r4, r0
     790:	01af0000 			; <UNDEFINED> instruction: 0x01af0000
     794:	00010000 	andeq	r0, r1, r0
     798:	00000051 	andeq	r0, r0, r1, asr r0
     79c:	00000000 	andeq	r0, r0, r0
     7a0:	0001c800 	andeq	ip, r1, r0, lsl #16
     7a4:	0001cc00 	andeq	ip, r1, r0, lsl #24
     7a8:	7d000200 	sfmvc	f0, 4, [r0]
     7ac:	0001cc00 	andeq	ip, r1, r0, lsl #24
     7b0:	0001d400 	andeq	sp, r1, r0, lsl #8
     7b4:	7d000200 	sfmvc	f0, 4, [r0]
     7b8:	0001d404 	andeq	sp, r1, r4, lsl #8
     7bc:	00021000 	andeq	r1, r2, r0
     7c0:	7d000200 	sfmvc	f0, 4, [r0]
     7c4:	00000030 	andeq	r0, r0, r0, lsr r0
     7c8:	00000000 	andeq	r0, r0, r0
     7cc:	0001c800 	andeq	ip, r1, r0, lsl #16
     7d0:	0001dc00 	andeq	sp, r1, r0, lsl #24
     7d4:	50000100 	andpl	r0, r0, r0, lsl #2
	...
     7e0:	000001c8 	andeq	r0, r0, r8, asr #3
     7e4:	000001dc 	ldrdeq	r0, [r0], -ip
     7e8:	00510001 	subseq	r0, r1, r1
     7ec:	00000000 	andeq	r0, r0, r0
     7f0:	10000000 	andne	r0, r0, r0
     7f4:	18000002 	stmdane	r0, {r1}
     7f8:	02000002 	andeq	r0, r0, #2
     7fc:	18007d00 	stmdane	r0, {r8, sl, fp, ip, sp, lr}
     800:	78000002 	stmdavc	r0, {r1}
     804:	02000002 	andeq	r0, r0, #2
     808:	00087d00 	andeq	r7, r8, r0, lsl #26
     80c:	00000000 	andeq	r0, r0, r0
     810:	10000000 	andne	r0, r0, r0
     814:	14000002 	strne	r0, [r0], #-2
     818:	01000002 	tsteq	r0, r2
     81c:	00005000 	andeq	r5, r0, r0
     820:	00000000 	andeq	r0, r0, r0
     824:	02100000 	andseq	r0, r0, #0
     828:	021c0000 	andseq	r0, ip, #0
     82c:	00010000 	andeq	r0, r1, r0
     830:	00021c51 	andeq	r1, r2, r1, asr ip
     834:	00021f00 	andeq	r1, r2, r0, lsl #30
     838:	50000100 	andpl	r0, r0, r0, lsl #2
	...
     844:	00000220 	andeq	r0, r0, r0, lsr #4
     848:	00000228 	andeq	r0, r0, r8, lsr #4
     84c:	28500001 	ldmdacs	r0, {r0}^
     850:	3c000002 	stccc	0, cr0, [r0], {2}
     854:	03000002 	movweq	r0, #2
     858:	9f017000 	svcls	0x00017000
     85c:	0000023c 	andeq	r0, r0, ip, lsr r2
     860:	00000240 	andeq	r0, r0, r0, asr #4
     864:	01710003 	cmneq	r1, r3
     868:	0002609f 	muleq	r2, pc, r0	; <UNPREDICTABLE>
     86c:	00027000 	andeq	r7, r2, r0
     870:	70000300 	andvc	r0, r0, r0, lsl #6
     874:	02709f01 	rsbseq	r9, r0, #4
     878:	02780000 	rsbseq	r0, r8, #0
     87c:	00030000 	andeq	r0, r3, r0
     880:	009f0171 	addseq	r0, pc, r1, ror r1	; <UNPREDICTABLE>
     884:	00000000 	andeq	r0, r0, r0
     888:	78000000 	stmdavc	r0, {}	; <UNPREDICTABLE>
     88c:	7c000002 	stcvc	0, cr0, [r0], {2}
     890:	02000002 	andeq	r0, r0, #2
     894:	7c007d00 	stcvc	13, cr7, [r0], {0}
     898:	d0000002 	andle	r0, r0, r2
     89c:	02000002 	andeq	r0, r0, #2
     8a0:	00187d00 	andseq	r7, r8, r0, lsl #26
     8a4:	00000000 	andeq	r0, r0, r0
     8a8:	78000000 	stmdavc	r0, {}	; <UNPREDICTABLE>
     8ac:	8c000002 	stchi	0, cr0, [r0], {2}
     8b0:	01000002 	tsteq	r0, r2
     8b4:	028c5000 	addeq	r5, ip, #0
     8b8:	02ac0000 	adceq	r0, ip, #0
     8bc:	00010000 	andeq	r0, r1, r0
     8c0:	0002b056 	andeq	fp, r2, r6, asr r0
     8c4:	0002b400 	andeq	fp, r2, r0, lsl #8
     8c8:	54000100 	strpl	r0, [r0], #-256	; 0x100
     8cc:	000002b4 			; <UNDEFINED> instruction: 0x000002b4
     8d0:	000002d0 	ldrdeq	r0, [r0], -r0	; <UNPREDICTABLE>
     8d4:	00560001 	subseq	r0, r6, r1
     8d8:	00000000 	andeq	r0, r0, r0
     8dc:	78000000 	stmdavc	r0, {}	; <UNPREDICTABLE>
     8e0:	8c000002 	stchi	0, cr0, [r0], {2}
     8e4:	01000002 	tsteq	r0, r2
     8e8:	028c5100 	addeq	r5, ip, #0
     8ec:	02d00000 	sbcseq	r0, r0, #0
     8f0:	00010000 	andeq	r0, r1, r0
     8f4:	00000057 	andeq	r0, r0, r7, asr r0
     8f8:	00000000 	andeq	r0, r0, r0
     8fc:	00027800 	andeq	r7, r2, r0, lsl #16
     900:	00028c00 	andeq	r8, r2, r0, lsl #24
     904:	30000200 	andcc	r0, r0, r0, lsl #4
     908:	00028c9f 	muleq	r2, pc, ip	; <UNPREDICTABLE>
     90c:	00029400 	andeq	r9, r2, r0, lsl #8
     910:	55000100 	strpl	r0, [r0, #-256]	; 0x100
     914:	00000294 	muleq	r0, r4, r2
     918:	000002ac 	andeq	r0, r0, ip, lsr #5
     91c:	b0550001 	subslt	r0, r5, r1
     920:	d0000002 	andle	r0, r0, r2
     924:	01000002 	tsteq	r0, r2
     928:	00005500 	andeq	r5, r0, r0, lsl #10
     92c:	00000000 	andeq	r0, r0, r0
     930:	02940000 	addseq	r0, r4, #0
     934:	02ac0000 	adceq	r0, ip, #0
     938:	00010000 	andeq	r0, r1, r0
     93c:	00000052 	andeq	r0, r0, r2, asr r0
     940:	00000000 	andeq	r0, r0, r0
     944:	0002d000 	andeq	sp, r2, r0
     948:	0002d400 	andeq	sp, r2, r0, lsl #8
     94c:	7d000200 	sfmvc	f0, 4, [r0]
     950:	0002d400 	andeq	sp, r2, r0, lsl #8
     954:	0002dc00 	andeq	sp, r2, r0, lsl #24
     958:	7d000200 	sfmvc	f0, 4, [r0]
     95c:	0002dc10 	andeq	sp, r2, r0, lsl ip
     960:	00032c00 	andeq	r2, r3, r0, lsl #24
     964:	7d000200 	sfmvc	f0, 4, [r0]
     968:	00000018 	andeq	r0, r0, r8, lsl r0
     96c:	00000000 	andeq	r0, r0, r0
     970:	0002d000 	andeq	sp, r2, r0
     974:	0002e400 	andeq	lr, r2, r0, lsl #8
     978:	50000100 	andpl	r0, r0, r0, lsl #2
     97c:	000002e4 	andeq	r0, r0, r4, ror #5
     980:	0000032c 	andeq	r0, r0, ip, lsr #6
     984:	00540001 	subseq	r0, r4, r1
     988:	00000000 	andeq	r0, r0, r0
     98c:	d0000000 	andle	r0, r0, r0
     990:	e8000002 	stmda	r0, {r1}
     994:	01000002 	tsteq	r0, r2
     998:	02e85100 	rsceq	r5, r8, #0
     99c:	032c0000 	teqeq	ip, #0
     9a0:	00010000 	andeq	r0, r1, r0
     9a4:	00000055 	andeq	r0, r0, r5, asr r0
     9a8:	00000000 	andeq	r0, r0, r0
     9ac:	0002d000 	andeq	sp, r2, r0
     9b0:	0002eb00 	andeq	lr, r2, r0, lsl #22
     9b4:	52000100 	andpl	r0, r0, #0
	...
     9c0:	000002ec 	andeq	r0, r0, ip, ror #5
     9c4:	000002f4 	strdeq	r0, [r0], -r4
     9c8:	f4500001 			; <UNDEFINED> instruction: 0xf4500001
     9cc:	2c000002 	stccs	0, cr0, [r0], {2}
     9d0:	01000003 	tsteq	r0, r3
     9d4:	00005600 	andeq	r5, r0, r0, lsl #12
     9d8:	00000000 	andeq	r0, r0, r0
     9dc:	02f40000 	rscseq	r0, r4, #0
     9e0:	03000000 	movweq	r0, #0
     9e4:	00020000 	andeq	r0, r2, r0
     9e8:	030c6491 	movweq	r6, #50321	; 0xc491
     9ec:	032c0000 	teqeq	ip, #0
     9f0:	00020000 	andeq	r0, r2, r0
     9f4:	00006491 	muleq	r0, r1, r4
     9f8:	00000000 	andeq	r0, r0, r0
     9fc:	032c0000 	teqeq	ip, #0
     a00:	03300000 	teqeq	r0, #0
     a04:	00020000 	andeq	r0, r2, r0
     a08:	0330007d 	teqeq	r0, #125	; 0x7d
     a0c:	03340000 	teqeq	r4, #0
     a10:	00020000 	andeq	r0, r2, r0
     a14:	0334087d 	teqeq	r4, #8192000	; 0x7d0000
     a18:	039c0000 	orrseq	r0, ip, #0
     a1c:	00020000 	andeq	r0, r2, r0
     a20:	0000107d 	andeq	r1, r0, sp, ror r0
     a24:	00000000 	andeq	r0, r0, r0
     a28:	032c0000 	teqeq	ip, #0
     a2c:	033c0000 	teqeq	ip, #0
     a30:	00010000 	andeq	r0, r1, r0
     a34:	00033c50 	andeq	r3, r3, r0, asr ip
     a38:	00035300 	andeq	r5, r3, r0, lsl #6
     a3c:	73000300 	movwvc	r0, #768	; 0x300
     a40:	00009f7d 	andeq	r9, r0, sp, ror pc
     a44:	00000000 	andeq	r0, r0, r0
     a48:	032c0000 	teqeq	ip, #0
     a4c:	034c0000 	movteq	r0, #49152	; 0xc000
     a50:	00010000 	andeq	r0, r1, r0
     a54:	00034c51 	andeq	r4, r3, r1, asr ip
     a58:	00035c00 	andeq	r5, r3, r0, lsl #24
     a5c:	54000100 	strpl	r0, [r0], #-256	; 0x100
	...
     a68:	0000039c 	muleq	r0, ip, r3
     a6c:	000003a0 	andeq	r0, r0, r0, lsr #7
     a70:	00500001 	subseq	r0, r0, r1
     a74:	00000000 	andeq	r0, r0, r0
     a78:	9c000000 	stcls	0, cr0, [r0], {0}
     a7c:	a4000003 	strge	r0, [r0], #-3
     a80:	01000003 	tsteq	r0, r3
     a84:	03a45100 			; <UNDEFINED> instruction: 0x03a45100
     a88:	03a70000 			; <UNDEFINED> instruction: 0x03a70000
     a8c:	00010000 	andeq	r0, r1, r0
     a90:	00000050 	andeq	r0, r0, r0, asr r0
     a94:	00000000 	andeq	r0, r0, r0
     a98:	0003ac00 	andeq	sl, r3, r0, lsl #24
     a9c:	0003b000 	andeq	fp, r3, r0
     aa0:	50000100 	andpl	r0, r0, r0, lsl #2
	...
     aac:	000003ac 	andeq	r0, r0, ip, lsr #7
     ab0:	000003b4 			; <UNDEFINED> instruction: 0x000003b4
     ab4:	b4510001 	ldrblt	r0, [r1], #-1
     ab8:	b7000003 	strlt	r0, [r0, -r3]
     abc:	01000003 	tsteq	r0, r3
     ac0:	00005000 	andeq	r5, r0, r0
     ac4:	00000000 	andeq	r0, r0, r0
     ac8:	03bc0000 			; <UNDEFINED> instruction: 0x03bc0000
     acc:	03c00000 	biceq	r0, r0, #0
     ad0:	00020000 	andeq	r0, r2, r0
     ad4:	03c0007d 	biceq	r0, r0, #125	; 0x7d
     ad8:	03cc0000 	biceq	r0, ip, #0
     adc:	00020000 	andeq	r0, r2, r0
     ae0:	03cc087d 	biceq	r0, ip, #8192000	; 0x7d0000
     ae4:	042c0000 	strteq	r0, [ip]
     ae8:	00020000 	andeq	r0, r2, r0
     aec:	0000107d 	andeq	r1, r0, sp, ror r0
     af0:	00000000 	andeq	r0, r0, r0
     af4:	03bc0000 			; <UNDEFINED> instruction: 0x03bc0000
     af8:	03e80000 	mvneq	r0, #0
     afc:	00010000 	andeq	r0, r1, r0
     b00:	0003e850 	andeq	lr, r3, r0, asr r8
     b04:	00042c00 	andeq	r2, r4, r0, lsl #24
     b08:	54000100 	strpl	r0, [r0], #-256	; 0x100
	...
     b14:	00000400 	andeq	r0, r0, r0, lsl #8
     b18:	00000420 	andeq	r0, r0, r0, lsr #8
     b1c:	9f340002 	svcls	0x00340002
	...
     b28:	00000400 	andeq	r0, r0, r0, lsl #8
     b2c:	00000420 	andeq	r0, r0, r0, lsr #8
     b30:	00740002 	rsbseq	r0, r4, r2
	...
     b3c:	00000400 	andeq	r0, r0, r0, lsl #8
     b40:	00000410 	andeq	r0, r0, r0, lsl r4
     b44:	00740002 	rsbseq	r0, r4, r2
     b48:	00000410 	andeq	r0, r0, r0, lsl r4
     b4c:	00000420 	andeq	r0, r0, r0, lsr #8
     b50:	00520001 	subseq	r0, r2, r1
     b54:	00000000 	andeq	r0, r0, r0
     b58:	08000000 	stmdaeq	r0, {}	; <UNPREDICTABLE>
     b5c:	0c000004 	stceq	0, cr0, [r0], {4}
     b60:	01000004 	tsteq	r0, r4
     b64:	04105300 	ldreq	r5, [r0], #-768	; 0x300
     b68:	04200000 	strteq	r0, [r0]
     b6c:	00010000 	andeq	r0, r1, r0
     b70:	00000053 	andeq	r0, r0, r3, asr r0
     b74:	00000000 	andeq	r0, r0, r0
     b78:	00041800 	andeq	r1, r4, r0, lsl #16
     b7c:	00042000 	andeq	r2, r4, r0
     b80:	53000100 	movwpl	r0, #256	; 0x100
	...
     b8c:	00000418 	andeq	r0, r0, r8, lsl r4
     b90:	00000420 	andeq	r0, r0, r0, lsr #8
     b94:	00520001 	subseq	r0, r2, r1
     b98:	00000000 	andeq	r0, r0, r0
     b9c:	1c000000 	stcne	0, cr0, [r0], {0}
     ba0:	20000004 	andcs	r0, r0, r4
     ba4:	01000004 	tsteq	r0, r4
     ba8:	00005300 	andeq	r5, r0, r0, lsl #6
     bac:	00000000 	andeq	r0, r0, r0
     bb0:	041c0000 	ldreq	r0, [ip]
     bb4:	04200000 	strteq	r0, [r0]
     bb8:	00010000 	andeq	r0, r1, r0
     bbc:	00000052 	andeq	r0, r0, r2, asr r0
     bc0:	00000000 	andeq	r0, r0, r0
     bc4:	00042c00 	andeq	r2, r4, r0, lsl #24
     bc8:	00043000 	andeq	r3, r4, r0
     bcc:	7d000200 	sfmvc	f0, 4, [r0]
     bd0:	00043000 	andeq	r3, r4, r0
     bd4:	0004bc00 	andeq	fp, r4, r0, lsl #24
     bd8:	7d000200 	sfmvc	f0, 4, [r0]
     bdc:	00000008 	andeq	r0, r0, r8
     be0:	00000000 	andeq	r0, r0, r0
     be4:	00042c00 	andeq	r2, r4, r0, lsl #24
     be8:	00045c00 	andeq	r5, r4, r0, lsl #24
     bec:	50000100 	andpl	r0, r0, r0, lsl #2
     bf0:	0000046c 	andeq	r0, r0, ip, ror #8
     bf4:	000004a4 	andeq	r0, r0, r4, lsr #9
     bf8:	a4500001 	ldrbge	r0, [r0], #-1
     bfc:	a7000004 	strge	r0, [r0, -r4]
     c00:	02000004 	andeq	r0, r0, #4
     c04:	b0007c00 	andlt	r7, r0, r0, lsl #24
     c08:	bc000004 	stclt	0, cr0, [r0], {4}
     c0c:	01000004 	tsteq	r0, r4
     c10:	00005000 	andeq	r5, r0, r0
     c14:	00000000 	andeq	r0, r0, r0
     c18:	04380000 	ldrteq	r0, [r8]
     c1c:	045c0000 	ldrbeq	r0, [ip]
     c20:	00010000 	andeq	r0, r1, r0
     c24:	00046c50 	andeq	r6, r4, r0, asr ip
     c28:	0004a400 	andeq	sl, r4, r0, lsl #8
     c2c:	50000100 	andpl	r0, r0, r0, lsl #2
     c30:	000004a4 	andeq	r0, r0, r4, lsr #9
     c34:	000004a7 	andeq	r0, r0, r7, lsr #9
     c38:	007c0002 	rsbseq	r0, ip, r2
     c3c:	000004b0 			; <UNDEFINED> instruction: 0x000004b0
     c40:	000004bc 			; <UNDEFINED> instruction: 0x000004bc
     c44:	00500001 	subseq	r0, r0, r1
     c48:	00000000 	andeq	r0, r0, r0
     c4c:	38000000 	stmdacc	r0, {}	; <UNPREDICTABLE>
     c50:	3c000004 	stccc	0, cr0, [r0], {4}
     c54:	02000004 	andeq	r0, r0, #4
     c58:	3c9f3000 	ldccc	0, cr3, [pc], {0}
     c5c:	44000004 	strmi	r0, [r0], #-4
     c60:	01000004 	tsteq	r0, r4
     c64:	046c5200 	strbteq	r5, [ip], #-512	; 0x200
     c68:	04700000 	ldrbteq	r0, [r0]
     c6c:	00010000 	andeq	r0, r1, r0
     c70:	00000052 	andeq	r0, r0, r2, asr r0
     c74:	00000000 	andeq	r0, r0, r0
     c78:	00047400 	andeq	r7, r4, r0, lsl #8
     c7c:	00047c00 	andeq	r7, r4, r0, lsl #24
     c80:	52000100 	andpl	r0, r0, #0
     c84:	000004b0 			; <UNDEFINED> instruction: 0x000004b0
     c88:	000004bc 			; <UNDEFINED> instruction: 0x000004bc
     c8c:	00520001 	subseq	r0, r2, r1
     c90:	00000000 	andeq	r0, r0, r0
     c94:	bc000000 	stclt	0, cr0, [r0], {0}
     c98:	c0000004 	andgt	r0, r0, r4
     c9c:	02000004 	andeq	r0, r0, #4
     ca0:	c0007d00 	andgt	r7, r0, r0, lsl #26
     ca4:	40000004 	andmi	r0, r0, r4
     ca8:	02000005 	andeq	r0, r0, #5
     cac:	00107d00 	andseq	r7, r0, r0, lsl #26
     cb0:	00000000 	andeq	r0, r0, r0
     cb4:	bc000000 	stclt	0, cr0, [r0], {0}
     cb8:	03000004 	movweq	r0, #4
     cbc:	01000005 	tsteq	r0, r5
     cc0:	05305000 	ldreq	r5, [r0]!
     cc4:	05340000 	ldreq	r0, [r4]!
     cc8:	00010000 	andeq	r0, r1, r0
     ccc:	00000050 	andeq	r0, r0, r0, asr r0
     cd0:	00000000 	andeq	r0, r0, r0
     cd4:	0004c800 	andeq	ip, r4, r0, lsl #16
     cd8:	00050300 	andeq	r0, r5, r0, lsl #6
     cdc:	50000100 	andpl	r0, r0, r0, lsl #2
     ce0:	00000530 	andeq	r0, r0, r0, lsr r5
     ce4:	00000534 	andeq	r0, r0, r4, lsr r5
     ce8:	00500001 	subseq	r0, r0, r1
     cec:	00000000 	andeq	r0, r0, r0
     cf0:	c8000000 	stmdagt	r0, {}	; <UNPREDICTABLE>
     cf4:	cc000004 	stcgt	0, cr0, [r0], {4}
     cf8:	02000004 	andeq	r0, r0, #4
     cfc:	cc9f3000 	ldcgt	0, cr3, [pc], {0}
     d00:	d4000004 	strle	r0, [r0], #-4
     d04:	01000004 	tsteq	r0, r4
     d08:	05305200 	ldreq	r5, [r0, #-512]!	; 0x200
     d0c:	05400000 	strbeq	r0, [r0]
     d10:	00010000 	andeq	r0, r1, r0
     d14:	00000052 	andeq	r0, r0, r2, asr r0
     d18:	00000000 	andeq	r0, r0, r0
     d1c:	00050800 	andeq	r0, r5, r0, lsl #16
     d20:	00053000 	andeq	r3, r5, r0
     d24:	34000200 	strcc	r0, [r0], #-512	; 0x200
     d28:	0000009f 	muleq	r0, pc, r0	; <UNPREDICTABLE>
     d2c:	00000000 	andeq	r0, r0, r0
     d30:	00050800 	andeq	r0, r5, r0, lsl #16
     d34:	00053000 	andeq	r3, r5, r0
     d38:	74000200 	strvc	r0, [r0], #-512	; 0x200
     d3c:	00000004 	andeq	r0, r0, r4
     d40:	00000000 	andeq	r0, r0, r0
     d44:	00050800 	andeq	r0, r5, r0, lsl #16
     d48:	00051800 	andeq	r1, r5, r0, lsl #16
     d4c:	74000200 	strvc	r0, [r0], #-512	; 0x200
     d50:	00051804 	andeq	r1, r5, r4, lsl #16
     d54:	00053000 	andeq	r3, r5, r0
     d58:	52000100 	andpl	r0, r0, #0
	...
     d64:	00000510 	andeq	r0, r0, r0, lsl r5
     d68:	00000514 	andeq	r0, r0, r4, lsl r5
     d6c:	18530001 	ldmdane	r3, {r0}^
     d70:	30000005 	andcc	r0, r0, r5
     d74:	01000005 	tsteq	r0, r5
     d78:	00005300 	andeq	r5, r0, r0, lsl #6
     d7c:	00000000 	andeq	r0, r0, r0
     d80:	05200000 	streq	r0, [r0]!
     d84:	05300000 	ldreq	r0, [r0]!
     d88:	00010000 	andeq	r0, r1, r0
     d8c:	00000053 	andeq	r0, r0, r3, asr r0
     d90:	00000000 	andeq	r0, r0, r0
     d94:	00052000 	andeq	r2, r5, r0
     d98:	00053000 	andeq	r3, r5, r0
     d9c:	52000100 	andpl	r0, r0, #0
	...
     da8:	00000524 	andeq	r0, r0, r4, lsr #10
     dac:	00000530 	andeq	r0, r0, r0, lsr r5
     db0:	00530001 	subseq	r0, r3, r1
     db4:	00000000 	andeq	r0, r0, r0
     db8:	24000000 	strcs	r0, [r0]
     dbc:	30000005 	andcc	r0, r0, r5
     dc0:	01000005 	tsteq	r0, r5
     dc4:	00005200 	andeq	r5, r0, r0, lsl #4
     dc8:	00000000 	andeq	r0, r0, r0
     dcc:	05400000 	strbeq	r0, [r0]
     dd0:	05440000 	strbeq	r0, [r4]
     dd4:	00020000 	andeq	r0, r2, r0
     dd8:	0544007d 	strbeq	r0, [r4, #-125]	; 0x7d
     ddc:	05480000 	strbeq	r0, [r8]
     de0:	00020000 	andeq	r0, r2, r0
     de4:	0548047d 	strbeq	r0, [r8, #-1149]	; 0x47d
     de8:	05780000 	ldrbeq	r0, [r8]!
     dec:	00020000 	andeq	r0, r2, r0
     df0:	0000187d 	andeq	r1, r0, sp, ror r8
     df4:	00000000 	andeq	r0, r0, r0
     df8:	05400000 	strbeq	r0, [r0]
     dfc:	05540000 	ldrbeq	r0, [r4]
     e00:	00010000 	andeq	r0, r1, r0
     e04:	00055450 	andeq	r5, r5, r0, asr r4
     e08:	00055700 	andeq	r5, r5, r0, lsl #14
     e0c:	51000100 	mrspl	r0, (UNDEF: 16)
	...
     e18:	00000578 	andeq	r0, r0, r8, ror r5
     e1c:	0000057c 	andeq	r0, r0, ip, ror r5
     e20:	007d0002 	rsbseq	r0, sp, r2
     e24:	0000057c 	andeq	r0, r0, ip, ror r5
     e28:	000005f4 	strdeq	r0, [r0], -r4
     e2c:	187d0002 	ldmdane	sp!, {r1}^
	...
     e38:	00000578 	andeq	r0, r0, r8, ror r5
     e3c:	00000588 	andeq	r0, r0, r8, lsl #11
     e40:	88500001 	ldmdahi	r0, {r0}^
     e44:	f4000005 	vst4.8	{d0-d3}, [r0], r5
     e48:	01000005 	tsteq	r0, r5
     e4c:	00005800 	andeq	r5, r0, r0, lsl #16
     e50:	00000000 	andeq	r0, r0, r0
     e54:	05780000 	ldrbeq	r0, [r8]!
     e58:	05800000 	streq	r0, [r0]
     e5c:	00010000 	andeq	r0, r1, r0
     e60:	00058051 	andeq	r8, r5, r1, asr r0
     e64:	0005f400 	andeq	pc, r5, r0, lsl #8
     e68:	57000100 	strpl	r0, [r0, -r0, lsl #2]
	...
     e74:	0000059c 	muleq	r0, ip, r5
     e78:	000005b4 			; <UNDEFINED> instruction: 0x000005b4
     e7c:	e8540001 	ldmda	r4, {r0}^
     e80:	f4000005 	vst4.8	{d0-d3}, [r0], r5
     e84:	06000005 	streq	r0, [r0], -r5
     e88:	4a240300 	bmi	901a90 <_monitor_vecs-0x6ff570>
     e8c:	009f0100 	addseq	r0, pc, r0, lsl #2
     e90:	00000000 	andeq	r0, r0, r0
     e94:	f4000000 	vst4.8	{d0-d3}, [r0], r0
     e98:	f8000005 			; <UNDEFINED> instruction: 0xf8000005
     e9c:	02000005 	andeq	r0, r0, #5
     ea0:	f8007d00 			; <UNDEFINED> instruction: 0xf8007d00
     ea4:	ac000005 	stcge	0, cr0, [r0], {5}
     ea8:	02000006 	andeq	r0, r0, #6
     eac:	00207d00 	eoreq	r7, r0, r0, lsl #26
     eb0:	00000000 	andeq	r0, r0, r0
     eb4:	f4000000 	vst4.8	{d0-d3}, [r0], r0
     eb8:	08000005 	stmdaeq	r0, {r0, r2}
     ebc:	01000006 	tsteq	r0, r6
     ec0:	06085000 	streq	r5, [r8], -r0
     ec4:	06ac0000 	strteq	r0, [ip], r0
     ec8:	00010000 	andeq	r0, r1, r0
     ecc:	00000056 	andeq	r0, r0, r6, asr r0
     ed0:	00000000 	andeq	r0, r0, r0
     ed4:	0005f400 	andeq	pc, r5, r0, lsl #8
     ed8:	00060800 	andeq	r0, r6, r0, lsl #16
     edc:	51000100 	mrspl	r0, (UNDEF: 16)
	...
     ee8:	000005f4 	strdeq	r0, [r0], -r4
     eec:	00000608 	andeq	r0, r0, r8, lsl #12
     ef0:	9f300002 	svcls	0x00300002
	...
     efc:	000005f4 	strdeq	r0, [r0], -r4
     f00:	00000608 	andeq	r0, r0, r8, lsl #12
     f04:	04030006 	streq	r0, [r3], #-6
     f08:	9f01004d 	svcls	0x0001004d
     f0c:	0000062c 	andeq	r0, r0, ip, lsr #12
     f10:	0000063c 	andeq	r0, r0, ip, lsr r6
     f14:	58540001 	ldmdapl	r4, {r0}^
     f18:	6c000006 	stcvs	0, cr0, [r0], {6}
     f1c:	01000006 	tsteq	r0, r6
     f20:	06885400 	streq	r5, [r8], r0, lsl #8
     f24:	06ac0000 	strteq	r0, [ip], r0
     f28:	00060000 	andeq	r0, r6, r0
     f2c:	004e5403 	subeq	r5, lr, r3, lsl #8
     f30:	00009f01 	andeq	r9, r0, r1, lsl #30
     f34:	00000000 	andeq	r0, r0, r0
     f38:	060c0000 	streq	r0, [ip], -r0
     f3c:	06100000 	ldreq	r0, [r0], -r0
     f40:	00020000 	andeq	r0, r2, r0
     f44:	06107c78 			; <UNDEFINED> instruction: 0x06107c78
     f48:	06280000 	strteq	r0, [r8], -r0
     f4c:	00010000 	andeq	r0, r1, r0
     f50:	00062855 	andeq	r2, r6, r5, asr r8
     f54:	00063800 	andeq	r3, r6, r0, lsl #16
     f58:	55000100 	strpl	r0, [r0, #-256]	; 0x100
	...
     f64:	0000060c 	andeq	r0, r0, ip, lsl #12
     f68:	0000061c 	andeq	r0, r0, ip, lsl r6
     f6c:	1c540001 	mrrcne	0, 0, r0, r4, cr1
     f70:	1f000006 	svcne	0x00000006
     f74:	01000006 	tsteq	r0, r6
     f78:	061f5000 	ldreq	r5, [pc], -r0
     f7c:	06200000 	strteq	r0, [r0], -r0
     f80:	00030000 	andeq	r0, r3, r0
     f84:	209f7e74 	addscs	r7, pc, r4, ror lr	; <UNPREDICTABLE>
     f88:	3c000006 	stccc	0, cr0, [r0], {6}
     f8c:	01000006 	tsteq	r0, r6
     f90:	00005400 	andeq	r5, r0, r0, lsl #8
     f94:	00000000 	andeq	r0, r0, r0
     f98:	060c0000 	streq	r0, [ip], -r0
     f9c:	06100000 	ldreq	r0, [r0], -r0
     fa0:	00020000 	andeq	r0, r2, r0
     fa4:	00009f30 	andeq	r9, r0, r0, lsr pc
     fa8:	00000000 	andeq	r0, r0, r0
     fac:	063c0000 	ldrteq	r0, [ip], -r0
     fb0:	06540000 	ldrbeq	r0, [r4], -r0
     fb4:	00010000 	andeq	r0, r1, r0
     fb8:	00065454 	andeq	r5, r6, r4, asr r4
     fbc:	00065700 	andeq	r5, r6, r0, lsl #14
     fc0:	50000100 	andpl	r0, r0, r0, lsl #2
     fc4:	00000657 	andeq	r0, r0, r7, asr r6
     fc8:	0000066c 	andeq	r0, r0, ip, ror #12
     fcc:	78740003 	ldmdavc	r4!, {r0, r1}^
     fd0:	0000009f 	muleq	r0, pc, r0	; <UNPREDICTABLE>
     fd4:	00000000 	andeq	r0, r0, r0
     fd8:	00066800 	andeq	r6, r6, r0, lsl #16
     fdc:	00066c00 	andeq	r6, r6, r0, lsl #24
     fe0:	76000300 	strvc	r0, [r0], -r0, lsl #6
     fe4:	066c00c0 	strbteq	r0, [ip], -r0, asr #1
     fe8:	06840000 	streq	r0, [r4], r0
     fec:	00010000 	andeq	r0, r1, r0
     ff0:	00068455 	andeq	r8, r6, r5, asr r4
     ff4:	0006ac00 	andeq	sl, r6, r0, lsl #24
     ff8:	55000100 	strpl	r0, [r0, #-256]	; 0x100
	...
    1004:	00000668 	andeq	r0, r0, r8, ror #12
    1008:	0000066c 	andeq	r0, r0, ip, ror #12
    100c:	4c030006 	stcmi	0, cr0, [r3], {6}
    1010:	9f01004e 	svcls	0x0001004e
    1014:	0000067c 	andeq	r0, r0, ip, ror r6
    1018:	000006ac 	andeq	r0, r0, ip, lsr #13
    101c:	00540001 	subseq	r0, r4, r1
    1020:	00000000 	andeq	r0, r0, r0
    1024:	68000000 	stmdavs	r0, {}	; <UNPREDICTABLE>
    1028:	6c000006 	stcvs	0, cr0, [r0], {6}
    102c:	02000006 	andeq	r0, r0, #6
    1030:	009f3000 	addseq	r3, pc, r0
    1034:	00000000 	andeq	r0, r0, r0
    1038:	b4000000 	strlt	r0, [r0]
    103c:	d0000006 	andle	r0, r0, r6
    1040:	01000006 	tsteq	r0, r6
    1044:	06d45000 	ldrbeq	r5, [r4], r0
    1048:	06e00000 	strbteq	r0, [r0], r0
    104c:	00010000 	andeq	r0, r1, r0
    1050:	0006e850 	andeq	lr, r6, r0, asr r8
    1054:	0006f800 	andeq	pc, r6, r0, lsl #16
    1058:	50000100 	andpl	r0, r0, r0, lsl #2
    105c:	00000700 	andeq	r0, r0, r0, lsl #14
    1060:	00000714 	andeq	r0, r0, r4, lsl r7
    1064:	00500001 	subseq	r0, r0, r1
    1068:	00000000 	andeq	r0, r0, r0
    106c:	b4000000 	strlt	r0, [r0]
    1070:	08000006 	stmdaeq	r0, {r1, r2}
    1074:	01000007 	tsteq	r0, r7
    1078:	00005200 	andeq	r5, r0, r0, lsl #4
    107c:	00000000 	andeq	r0, r0, r0
    1080:	071c0000 	ldreq	r0, [ip, -r0]
    1084:	07200000 	streq	r0, [r0, -r0]!
    1088:	00020000 	andeq	r0, r2, r0
    108c:	0720007d 			; <UNDEFINED> instruction: 0x0720007d
    1090:	07240000 	streq	r0, [r4, -r0]!
    1094:	00020000 	andeq	r0, r2, r0
    1098:	0724147d 			; <UNDEFINED> instruction: 0x0724147d
    109c:	07c80000 	strbeq	r0, [r8, r0]
    10a0:	00020000 	andeq	r0, r2, r0
    10a4:	0000207d 	andeq	r2, r0, sp, ror r0
    10a8:	00000000 	andeq	r0, r0, r0
    10ac:	071c0000 	ldreq	r0, [ip, -r0]
    10b0:	07280000 	streq	r0, [r8, -r0]!
    10b4:	00010000 	andeq	r0, r1, r0
    10b8:	00000050 	andeq	r0, r0, r0, asr r0
    10bc:	00000000 	andeq	r0, r0, r0
    10c0:	00071c00 	andeq	r1, r7, r0, lsl #24
    10c4:	00072c00 	andeq	r2, r7, r0, lsl #24
    10c8:	71000300 	mrsvc	r0, LR_irq
    10cc:	072c9f01 	streq	r9, [ip, -r1, lsl #30]!
    10d0:	072f0000 	streq	r0, [pc, -r0]!
    10d4:	00010000 	andeq	r0, r1, r0
    10d8:	00000050 	andeq	r0, r0, r0, asr r0
    10dc:	00000000 	andeq	r0, r0, r0
    10e0:	00071c00 	andeq	r1, r7, r0, lsl #24
    10e4:	00074800 	andeq	r4, r7, r0, lsl #16
    10e8:	30000200 	andcc	r0, r0, r0, lsl #4
    10ec:	0007489f 	muleq	r7, pc, r8	; <UNPREDICTABLE>
    10f0:	00076400 	andeq	r6, r7, r0, lsl #8
    10f4:	54000100 	strpl	r0, [r0], #-256	; 0x100
    10f8:	00000764 	andeq	r0, r0, r4, ror #14
    10fc:	00000770 	andeq	r0, r0, r0, ror r7
    1100:	9f300002 	svcls	0x00300002
    1104:	00000770 	andeq	r0, r0, r0, ror r7
    1108:	000007c8 	andeq	r0, r0, r8, asr #15
    110c:	04030006 	streq	r0, [r3], #-6
    1110:	9f01004d 	svcls	0x0001004d
	...
    111c:	00000734 	andeq	r0, r0, r4, lsr r7
    1120:	00000738 	andeq	r0, r0, r8, lsr r7
    1124:	38500001 	ldmdacc	r0, {r0}^
    1128:	c8000007 	stmdagt	r0, {r0, r1, r2}
    112c:	01000007 	tsteq	r0, r7
    1130:	00005600 	andeq	r5, r0, r0, lsl #12
    1134:	00000000 	andeq	r0, r0, r0
    1138:	07700000 	ldrbeq	r0, [r0, -r0]!
    113c:	07840000 	streq	r0, [r4, r0]
    1140:	00010000 	andeq	r0, r1, r0
    1144:	00078450 	andeq	r8, r7, r0, asr r4
    1148:	0007c800 	andeq	ip, r7, r0, lsl #16
    114c:	57000100 	strpl	r0, [r0, -r0, lsl #2]
	...
    1158:	00000770 	andeq	r0, r0, r0, ror r7
    115c:	00000784 	andeq	r0, r0, r4, lsl #15
    1160:	9f300002 	svcls	0x00300002
    1164:	0000078c 	andeq	r0, r0, ip, lsl #15
    1168:	00000798 	muleq	r0, r8, r7
    116c:	00540001 	subseq	r0, r4, r1
    1170:	00000000 	andeq	r0, r0, r0
    1174:	c8000000 	stmdagt	r0, {}	; <UNPREDICTABLE>
    1178:	e4000007 	str	r0, [r0], #-7
    117c:	01000007 	tsteq	r0, r7
    1180:	07e85000 	strbeq	r5, [r8, r0]!
    1184:	07f00000 	ldrbeq	r0, [r0, r0]!
    1188:	00010000 	andeq	r0, r1, r0
    118c:	00081850 	andeq	r1, r8, r0, asr r8
    1190:	00083000 	andeq	r3, r8, r0
    1194:	50000100 	andpl	r0, r0, r0, lsl #2
	...
    11a0:	000007c8 	andeq	r0, r0, r8, asr #15
    11a4:	000007fc 	strdeq	r0, [r0], -ip
    11a8:	fc510001 	mrrc2	0, 0, r0, r1, cr1
    11ac:	18000007 	stmdane	r0, {r0, r1, r2}
    11b0:	03000008 	movweq	r0, #8
    11b4:	9f607300 	svcls	0x00607300
    11b8:	00000818 	andeq	r0, r0, r8, lsl r8
    11bc:	00000840 	andeq	r0, r0, r0, asr #16
    11c0:	00510001 	subseq	r0, r1, r1
    11c4:	00000000 	andeq	r0, r0, r0
    11c8:	c8000000 	stmdagt	r0, {}	; <UNPREDICTABLE>
    11cc:	f8000007 			; <UNDEFINED> instruction: 0xf8000007
    11d0:	01000007 	tsteq	r0, r7
    11d4:	08185200 	ldmdaeq	r8, {r9, ip, lr}
    11d8:	08400000 	stmdaeq	r0, {}^	; <UNPREDICTABLE>
    11dc:	00010000 	andeq	r0, r1, r0
    11e0:	00000052 	andeq	r0, r0, r2, asr r0
    11e4:	00000000 	andeq	r0, r0, r0
    11e8:	0007f000 	andeq	pc, r7, r0
    11ec:	0007f800 	andeq	pc, r7, r0, lsl #16
    11f0:	52000100 	andpl	r0, r0, #0
	...
    11fc:	000007f0 	strdeq	r0, [r0], -r0	; <UNPREDICTABLE>
    1200:	000007fc 	strdeq	r0, [r0], -ip
    1204:	fc510001 	mrrc2	0, 0, r0, r1, cr1
    1208:	18000007 	stmdane	r0, {r0, r1, r2}
    120c:	03000008 	movweq	r0, #8
    1210:	9f607300 	svcls	0x00607300
	...
    121c:	000007f0 	strdeq	r0, [r0], -r0	; <UNPREDICTABLE>
    1220:	000007fc 	strdeq	r0, [r0], -ip
    1224:	fc510001 	mrrc2	0, 0, r0, r1, cr1
    1228:	18000007 	stmdane	r0, {r0, r1, r2}
    122c:	01000008 	tsteq	r0, r8
    1230:	00005100 	andeq	r5, r0, r0, lsl #2
    1234:	00000000 	andeq	r0, r0, r0
    1238:	07f80000 	ldrbeq	r0, [r8, r0]!
    123c:	08000000 	stmdaeq	r0, {}	; <UNPREDICTABLE>
    1240:	00010000 	andeq	r0, r1, r0
    1244:	00080052 	andeq	r0, r8, r2, asr r0
    1248:	00081800 	andeq	r1, r8, r0, lsl #16
    124c:	52000100 	andpl	r0, r0, #0
	...
    1258:	0000080c 	andeq	r0, r0, ip, lsl #16
    125c:	00000818 	andeq	r0, r0, r8, lsl r8
    1260:	00520001 	subseq	r0, r2, r1
    1264:	00000000 	andeq	r0, r0, r0
    1268:	0c000000 	stceq	0, cr0, [r0], {0}
    126c:	18000008 	stmdane	r0, {r3}
    1270:	01000008 	tsteq	r0, r8
    1274:	00005100 	andeq	r5, r0, r0, lsl #2
    1278:	00000000 	andeq	r0, r0, r0
    127c:	08100000 	ldmdaeq	r0, {}	; <UNPREDICTABLE>
    1280:	08180000 	ldmdaeq	r8, {}	; <UNPREDICTABLE>
    1284:	00010000 	andeq	r0, r1, r0
    1288:	00000052 	andeq	r0, r0, r2, asr r0
    128c:	00000000 	andeq	r0, r0, r0
    1290:	00081000 	andeq	r1, r8, r0
    1294:	00081800 	andeq	r1, r8, r0, lsl #16
    1298:	51000100 	mrspl	r0, (UNDEF: 16)
	...
    12a4:	0000082c 	andeq	r0, r0, ip, lsr #16
    12a8:	00000834 	andeq	r0, r0, r4, lsr r8
    12ac:	00530001 	subseq	r0, r3, r1
    12b0:	00000000 	andeq	r0, r0, r0
    12b4:	40000000 	andmi	r0, r0, r0
    12b8:	44000008 	strmi	r0, [r0], #-8
    12bc:	02000008 	andeq	r0, r0, #8
    12c0:	44007d00 	strmi	r7, [r0], #-3328	; 0xd00
    12c4:	48000008 	stmdami	r0, {r3}
    12c8:	02000008 	andeq	r0, r0, #8
    12cc:	480c7d00 	stmdami	ip, {r8, sl, fp, ip, sp, lr}
    12d0:	8c000008 	stchi	0, cr0, [r0], {8}
    12d4:	02000009 	andeq	r0, r0, #9
    12d8:	00287d00 	eoreq	r7, r8, r0, lsl #26
    12dc:	00000000 	andeq	r0, r0, r0
    12e0:	40000000 	andmi	r0, r0, r0
    12e4:	58000008 	stmdapl	r0, {r3}
    12e8:	01000008 	tsteq	r0, r8
    12ec:	00005000 	andeq	r5, r0, r0
    12f0:	00000000 	andeq	r0, r0, r0
    12f4:	08400000 	stmdaeq	r0, {}^	; <UNPREDICTABLE>
    12f8:	084c0000 	stmdaeq	ip, {}^	; <UNPREDICTABLE>
    12fc:	00010000 	andeq	r0, r1, r0
    1300:	00084c51 	andeq	r4, r8, r1, asr ip
    1304:	00085c00 	andeq	r5, r8, r0, lsl #24
    1308:	71000300 	mrsvc	r0, LR_irq
    130c:	085c9f7f 	ldmdaeq	ip, {r0, r1, r2, r3, r4, r5, r6, r8, r9, sl, fp, ip, pc}^
    1310:	08630000 	stmdaeq	r3!, {}^	; <UNPREDICTABLE>
    1314:	00070000 	andeq	r0, r7, r0
    1318:	09060074 	stmdbeq	r6, {r2, r4, r5, r6}
    131c:	009f22ff 			; <UNDEFINED> instruction: 0x009f22ff
    1320:	00000000 	andeq	r0, r0, r0
    1324:	70000000 	andvc	r0, r0, r0
    1328:	8c000008 	stchi	0, cr0, [r0], {8}
    132c:	01000008 	tsteq	r0, r8
    1330:	00005400 	andeq	r5, r0, r0, lsl #8
    1334:	00000000 	andeq	r0, r0, r0
    1338:	08700000 	ldmdaeq	r0!, {}^	; <UNPREDICTABLE>
    133c:	088c0000 	stmeq	ip, {}	; <UNPREDICTABLE>
    1340:	00020000 	andeq	r0, r2, r0
    1344:	08dc6091 	ldmeq	ip, {r0, r4, r7, sp, lr}^
    1348:	09400000 	stmdbeq	r0, {}^	; <UNPREDICTABLE>
    134c:	00020000 	andeq	r0, r2, r0
    1350:	09586091 	ldmdbeq	r8, {r0, r4, r7, sp, lr}^
    1354:	098c0000 	stmibeq	ip, {}	; <UNPREDICTABLE>
    1358:	00020000 	andeq	r0, r2, r0
    135c:	00006091 	muleq	r0, r1, r0
    1360:	00000000 	andeq	r0, r0, r0
    1364:	086c0000 	stmdaeq	ip!, {}^	; <UNPREDICTABLE>
    1368:	088c0000 	stmeq	ip, {}	; <UNPREDICTABLE>
    136c:	00020000 	andeq	r0, r2, r0
    1370:	08ac5c91 	stmiaeq	ip!, {r0, r4, r7, sl, fp, ip, lr}
    1374:	098c0000 	stmibeq	ip, {}	; <UNPREDICTABLE>
    1378:	00020000 	andeq	r0, r2, r0
    137c:	00005c91 	muleq	r0, r1, ip
    1380:	00000000 	andeq	r0, r0, r0
    1384:	08540000 	ldmdaeq	r4, {}^	; <UNPREDICTABLE>
    1388:	08dc0000 	ldmeq	ip, {}^	; <UNPREDICTABLE>
    138c:	00020000 	andeq	r0, r2, r0
    1390:	08dc7074 	ldmeq	ip, {r2, r4, r5, r6, ip, sp, lr}^
    1394:	098c0000 	stmibeq	ip, {}	; <UNPREDICTABLE>
    1398:	00020000 	andeq	r0, r2, r0
    139c:	00005891 	muleq	r0, r1, r8
    13a0:	00000000 	andeq	r0, r0, r0
    13a4:	08700000 	ldmdaeq	r0!, {}^	; <UNPREDICTABLE>
    13a8:	088c0000 	stmeq	ip, {}	; <UNPREDICTABLE>
    13ac:	00020000 	andeq	r0, r2, r0
    13b0:	09546c73 	ldmdbeq	r4, {r0, r1, r4, r5, r6, sl, fp, sp, lr}^
    13b4:	09780000 	ldmdbeq	r8!, {}^	; <UNPREDICTABLE>
    13b8:	00020000 	andeq	r0, r2, r0
    13bc:	00006c73 	andeq	r6, r0, r3, ror ip
    13c0:	00000000 	andeq	r0, r0, r0
    13c4:	08cc0000 	stmiaeq	ip, {}^	; <UNPREDICTABLE>
    13c8:	08dc0000 	ldmeq	ip, {}^	; <UNPREDICTABLE>
    13cc:	00020000 	andeq	r0, r2, r0
    13d0:	08dc9f30 	ldmeq	ip, {r4, r5, r8, r9, sl, fp, ip, pc}^
    13d4:	08e80000 	stmiaeq	r8!, {}^	; <UNPREDICTABLE>
    13d8:	00010000 	andeq	r0, r1, r0
    13dc:	00000054 	andeq	r0, r0, r4, asr r0
    13e0:	00000000 	andeq	r0, r0, r0
    13e4:	00087000 	andeq	r7, r8, r0
    13e8:	00088c00 	andeq	r8, r8, r0, lsl #24
    13ec:	91000200 	mrsls	r0, R8_usr
    13f0:	0008dc67 	andeq	sp, r8, r7, ror #24
    13f4:	00094000 	andeq	r4, r9, r0
    13f8:	91000200 	mrsls	r0, R8_usr
    13fc:	00097867 	andeq	r7, r9, r7, ror #16
    1400:	00098c00 	andeq	r8, r9, r0, lsl #24
    1404:	91000200 	mrsls	r0, R8_usr
    1408:	00000067 	andeq	r0, r0, r7, rrx
    140c:	00000000 	andeq	r0, r0, r0
    1410:	0008dc00 	andeq	sp, r8, r0, lsl #24
    1414:	0008e800 	andeq	lr, r8, r0, lsl #16
    1418:	91000300 	mrsls	r0, LR_irq
    141c:	08e89f67 	stmiaeq	r8!, {r0, r1, r2, r5, r6, r8, r9, sl, fp, ip, pc}^
    1420:	09400000 	stmdbeq	r0, {}^	; <UNPREDICTABLE>
    1424:	00030000 	andeq	r0, r3, r0
    1428:	009f6791 	umullseq	r6, pc, r1, r7	; <UNPREDICTABLE>
    142c:	00000000 	andeq	r0, r0, r0
    1430:	dc000000 	stcle	0, cr0, [r0], {0}
    1434:	e8000008 	stmda	r0, {r3}
    1438:	03000008 	movweq	r0, #8
    143c:	9f589100 	svcls	0x00589100
    1440:	000008e8 	andeq	r0, r0, r8, ror #17
    1444:	00000940 	andeq	r0, r0, r0, asr #18
    1448:	58910003 	ldmpl	r1, {r0, r1}
    144c:	0000009f 	muleq	r0, pc, r0	; <UNPREDICTABLE>
    1450:	00000000 	andeq	r0, r0, r0
    1454:	00098c00 	andeq	r8, r9, r0, lsl #24
    1458:	00099000 	andeq	r9, r9, r0
    145c:	7d000200 	sfmvc	f0, 4, [r0]
    1460:	00099000 	andeq	r9, r9, r0
    1464:	00099800 	andeq	r9, r9, r0, lsl #16
    1468:	7d000200 	sfmvc	f0, 4, [r0]
    146c:	00099820 	andeq	r9, r9, r0, lsr #16
    1470:	000b5400 	andeq	r5, fp, r0, lsl #8
    1474:	7d000200 	sfmvc	f0, 4, [r0]
    1478:	00000028 	andeq	r0, r0, r8, lsr #32
    147c:	00000000 	andeq	r0, r0, r0
    1480:	00098c00 	andeq	r8, r9, r0, lsl #24
    1484:	0009a800 	andeq	sl, r9, r0, lsl #16
    1488:	50000100 	andpl	r0, r0, r0, lsl #2
    148c:	000009a8 	andeq	r0, r0, r8, lsr #19
    1490:	00000b54 	andeq	r0, r0, r4, asr fp
    1494:	005a0001 	subseq	r0, sl, r1
    1498:	00000000 	andeq	r0, r0, r0
    149c:	a8000000 	stmdage	r0, {}	; <UNPREDICTABLE>
    14a0:	c8000009 	stmdagt	r0, {r0, r3}
    14a4:	01000009 	tsteq	r0, r9
    14a8:	09cc5000 	stmibeq	ip, {ip, lr}^
    14ac:	0b540000 	bleq	15014b4 <__bug_end+0x4fb530>
    14b0:	00010000 	andeq	r0, r1, r0
    14b4:	00000050 	andeq	r0, r0, r0, asr r0
    14b8:	00000000 	andeq	r0, r0, r0
    14bc:	0009fc00 	andeq	pc, r9, r0, lsl #24
    14c0:	000a0400 	andeq	r0, sl, r0, lsl #8
    14c4:	53000100 	movwpl	r0, #256	; 0x100
    14c8:	00000a14 	andeq	r0, r0, r4, lsl sl
    14cc:	00000a18 	andeq	r0, r0, r8, lsl sl
    14d0:	18540001 	ldmdane	r4, {r0}^
    14d4:	2700000a 	strcs	r0, [r0, -sl]
    14d8:	0100000a 	tsteq	r0, sl
    14dc:	0a275300 	beq	9d60e4 <_monitor_vecs-0x62af1c>
    14e0:	0a2c0000 	beq	b014e8 <_monitor_vecs-0x4ffb18>
    14e4:	00030000 	andeq	r0, r3, r0
    14e8:	009f7f74 	addseq	r7, pc, r4, ror pc	; <UNPREDICTABLE>
    14ec:	00000000 	andeq	r0, r0, r0
    14f0:	64000000 	strvs	r0, [r0]
    14f4:	6800000a 	stmdavs	r0, {r1, r3}
    14f8:	0600000a 	streq	r0, [r0], -sl
    14fc:	73007200 	movwvc	r7, #512	; 0x200
    1500:	009f2200 	addseq	r2, pc, r0, lsl #4
    1504:	00000000 	andeq	r0, r0, r0
    1508:	fc000000 	stc2	0, cr0, [r0], {0}
    150c:	00000009 	andeq	r0, r0, r9
    1510:	0100000a 	tsteq	r0, sl
    1514:	0a145600 	beq	516d1c <_monitor_vecs-0xaea2e4>
    1518:	0ab80000 	beq	fee01520 <__bug_end+0xfddfb59c>
    151c:	00010000 	andeq	r0, r1, r0
    1520:	00000056 	andeq	r0, r0, r6, asr r0
    1524:	00000000 	andeq	r0, r0, r0
    1528:	0009fc00 	andeq	pc, r9, r0, lsl #24
    152c:	000a0400 	andeq	r0, sl, r0, lsl #8
    1530:	53000100 	movwpl	r0, #256	; 0x100
    1534:	00000a14 	andeq	r0, r0, r4, lsl sl
    1538:	00000a18 	andeq	r0, r0, r8, lsl sl
    153c:	18540001 	ldmdane	r4, {r0}^
    1540:	2700000a 	strcs	r0, [r0, -sl]
    1544:	0100000a 	tsteq	r0, sl
    1548:	0a275300 	beq	9d6150 <_monitor_vecs-0x62aeb0>
    154c:	0a2c0000 	beq	b01554 <_monitor_vecs-0x4ffaac>
    1550:	00030000 	andeq	r0, r3, r0
    1554:	009f7f74 	addseq	r7, pc, r4, ror pc	; <UNPREDICTABLE>
    1558:	00000000 	andeq	r0, r0, r0
    155c:	b4000000 	strlt	r0, [r0]
    1560:	0c00000a 	stceq	0, cr0, [r0], {10}
    1564:	0600000b 	streq	r0, [r0], -fp
    1568:	4d040300 	stcmi	3, cr0, [r4]
    156c:	009f0100 	addseq	r0, pc, r0, lsl #2
    1570:	00000000 	andeq	r0, r0, r0
    1574:	b4000000 	strlt	r0, [r0]
    1578:	b800000a 	stmdalt	r0, {r1, r3}
    157c:	0200000a 	andeq	r0, r0, #10
    1580:	b89f3000 	ldmlt	pc, {ip, sp}	; <UNPREDICTABLE>
    1584:	c000000a 	andgt	r0, r0, sl
    1588:	0100000a 	tsteq	r0, sl
    158c:	00005400 	andeq	r5, r0, r0, lsl #8
    1590:	00000000 	andeq	r0, r0, r0
    1594:	0a3c0000 	beq	f0159c <_monitor_vecs-0xffa64>
    1598:	0a880000 	beq	fe2015a0 <__bug_end+0xfd1fb61c>
    159c:	00010000 	andeq	r0, r1, r0
    15a0:	00000054 	andeq	r0, r0, r4, asr r0
    15a4:	00000000 	andeq	r0, r0, r0
    15a8:	000a6000 	andeq	r6, sl, r0
    15ac:	000a6c00 	andeq	r6, sl, r0, lsl #24
    15b0:	50000100 	andpl	r0, r0, r0, lsl #2
	...
    15bc:	00000a64 	andeq	r0, r0, r4, ror #20
    15c0:	00000a68 	andeq	r0, r0, r8, ror #20
    15c4:	0072000d 	rsbseq	r0, r2, sp
    15c8:	48220073 	stmdami	r2!, {r0, r1, r4, r5, r6}
    15cc:	48007624 	stmdami	r0, {r2, r5, r9, sl, ip, sp, lr}
    15d0:	009f2924 	addseq	r2, pc, r4, lsr #18
    15d4:	00000000 	andeq	r0, r0, r0
    15d8:	7c000000 	stcvc	0, cr0, [r0], {0}
    15dc:	0c00000a 	stceq	0, cr0, [r0], {10}
    15e0:	0600000b 	streq	r0, [r0], -fp
    15e4:	4d040300 	stcmi	3, cr0, [r4]
    15e8:	009f0100 	addseq	r0, pc, r0, lsl #2
    15ec:	00000000 	andeq	r0, r0, r0
    15f0:	98000000 	stmdals	r0, {}	; <UNPREDICTABLE>
    15f4:	a400000a 	strge	r0, [r0], #-10
    15f8:	0100000a 	tsteq	r0, sl
    15fc:	00005300 	andeq	r5, r0, r0, lsl #6
    1600:	00000000 	andeq	r0, r0, r0
    1604:	0a880000 	beq	fe20160c <__bug_end+0xfd1fb688>
    1608:	0a900000 	beq	fe401610 <__bug_end+0xfd3fb68c>
    160c:	00010000 	andeq	r0, r1, r0
    1610:	000a9052 	andeq	r9, sl, r2, asr r0
    1614:	000a9400 	andeq	r9, sl, r0, lsl #8
    1618:	52000100 	andpl	r0, r0, #0
    161c:	00000aa0 	andeq	r0, r0, r0, lsr #21
    1620:	00000aa4 	andeq	r0, r0, r4, lsr #21
    1624:	a8520001 	ldmdage	r2, {r0}^
    1628:	b800000a 	stmdalt	r0, {r1, r3}
    162c:	0100000a 	tsteq	r0, sl
    1630:	00005200 	andeq	r5, r0, r0, lsl #4
    1634:	00000000 	andeq	r0, r0, r0
    1638:	0a880000 	beq	fe201640 <__bug_end+0xfd1fb6bc>
    163c:	0aa40000 	beq	fe901644 <__bug_end+0xfd8fb6c0>
    1640:	00010000 	andeq	r0, r1, r0
    1644:	00000054 	andeq	r0, r0, r4, asr r0
    1648:	00000000 	andeq	r0, r0, r0
    164c:	000b5400 	andeq	r5, fp, r0, lsl #8
    1650:	000b5800 	andeq	r5, fp, r0, lsl #16
    1654:	7d000200 	sfmvc	f0, 4, [r0]
    1658:	000b5800 	andeq	r5, fp, r0, lsl #16
    165c:	000b6400 	andeq	r6, fp, r0, lsl #8
    1660:	7d000200 	sfmvc	f0, 4, [r0]
    1664:	000b6420 	andeq	r6, fp, r0, lsr #8
    1668:	000bd400 	andeq	sp, fp, r0, lsl #8
    166c:	7d000200 	sfmvc	f0, 4, [r0]
    1670:	00000028 	andeq	r0, r0, r8, lsr #32
    1674:	00000000 	andeq	r0, r0, r0
    1678:	000b5400 	andeq	r5, fp, r0, lsl #8
    167c:	000b7800 	andeq	r7, fp, r0, lsl #16
    1680:	50000100 	andpl	r0, r0, r0, lsl #2
    1684:	00000b78 	andeq	r0, r0, r8, ror fp
    1688:	00000bd4 	ldrdeq	r0, [r0], -r4
    168c:	00550001 	subseq	r0, r5, r1
    1690:	00000000 	andeq	r0, r0, r0
    1694:	54000000 	strpl	r0, [r0]
    1698:	7800000b 	stmdavc	r0, {r0, r1, r3}
    169c:	0200000b 	andeq	r0, r0, #11
    16a0:	009f3000 	addseq	r3, pc, r0
    16a4:	00000000 	andeq	r0, r0, r0
    16a8:	d4000000 	strle	r0, [r0]
    16ac:	d800000b 	stmdale	r0, {r0, r1, r3}
    16b0:	0200000b 	andeq	r0, r0, #11
    16b4:	d8007d00 	stmdale	r0, {r8, sl, fp, ip, sp, lr}
    16b8:	1400000b 	strne	r0, [r0], #-11
    16bc:	0200000c 	andeq	r0, r0, #12
    16c0:	00087d00 	andeq	r7, r8, r0, lsl #26
	...
    16cc:	04000000 	streq	r0, [r0]
    16d0:	02000000 	andeq	r0, r0, #0
    16d4:	04007d00 	streq	r7, [r0], #-3328	; 0xd00
    16d8:	28000000 	stmdacs	r0, {}	; <UNPREDICTABLE>
    16dc:	02000000 	andeq	r0, r0, #0
    16e0:	00087d00 	andeq	r7, r8, r0, lsl #26
	...
    16ec:	0c000000 	stceq	0, cr0, [r0], {0}
    16f0:	01000000 	mrseq	r0, (UNDEF: 0)
    16f4:	000c5000 	andeq	r5, ip, r0
    16f8:	00140000 	andseq	r0, r4, r0
    16fc:	00010000 	andeq	r0, r1, r0
    1700:	00000054 	andeq	r0, r0, r4, asr r0
    1704:	00000000 	andeq	r0, r0, r0
    1708:	00000800 	andeq	r0, r0, r0, lsl #16
    170c:	00000c00 	andeq	r0, r0, r0, lsl #24
    1710:	50000100 	andpl	r0, r0, r0, lsl #2
    1714:	0000000c 	andeq	r0, r0, ip
    1718:	00000014 	andeq	r0, r0, r4, lsl r0
    171c:	00540001 	subseq	r0, r4, r1
    1720:	00000000 	andeq	r0, r0, r0
    1724:	28000000 	stmdacs	r0, {}	; <UNPREDICTABLE>
    1728:	2c000000 	stccs	0, cr0, [r0], {0}
    172c:	02000000 	andeq	r0, r0, #0
    1730:	2c007d00 	stccs	13, cr7, [r0], {0}
    1734:	34000000 	strcc	r0, [r0]
    1738:	02000000 	andeq	r0, r0, #0
    173c:	34087d00 	strcc	r7, [r8], #-3328	; 0xd00
    1740:	80000000 	andhi	r0, r0, r0
    1744:	02000000 	andeq	r0, r0, #0
    1748:	00187d00 	andseq	r7, r8, r0, lsl #26
    174c:	00000000 	andeq	r0, r0, r0
    1750:	28000000 	stmdacs	r0, {}	; <UNPREDICTABLE>
    1754:	44000000 	strmi	r0, [r0]
    1758:	01000000 	mrseq	r0, (UNDEF: 0)
    175c:	00445000 	subeq	r5, r4, r0
    1760:	00640000 	rsbeq	r0, r4, r0
    1764:	00010000 	andeq	r0, r1, r0
    1768:	0000645c 	andeq	r6, r0, ip, asr r4
    176c:	00006800 	andeq	r6, r0, r0, lsl #16
    1770:	53000100 	movwpl	r0, #256	; 0x100
    1774:	00000068 	andeq	r0, r0, r8, rrx
    1778:	00000080 	andeq	r0, r0, r0, lsl #1
    177c:	01730003 	cmneq	r3, r3
    1780:	0000009f 	muleq	r0, pc, r0	; <UNPREDICTABLE>
    1784:	00000000 	andeq	r0, r0, r0
    1788:	00002800 	andeq	r2, r0, r0, lsl #16
    178c:	00004400 	andeq	r4, r0, r0, lsl #8
    1790:	51000100 	mrspl	r0, (UNDEF: 16)
	...
    179c:	00000080 	andeq	r0, r0, r0, lsl #1
    17a0:	00000084 	andeq	r0, r0, r4, lsl #1
    17a4:	007d0002 	rsbseq	r0, sp, r2
    17a8:	00000084 	andeq	r0, r0, r4, lsl #1
    17ac:	0000008c 	andeq	r0, r0, ip, lsl #1
    17b0:	047d0002 	ldrbteq	r0, [sp], #-2
    17b4:	0000008c 	andeq	r0, r0, ip, lsl #1
    17b8:	000000e8 	andeq	r0, r0, r8, ror #1
    17bc:	287d0002 	ldmdacs	sp!, {r1}^
	...
    17c8:	00000080 	andeq	r0, r0, r0, lsl #1
    17cc:	00000098 	muleq	r0, r8, r0
    17d0:	98500001 	ldmdals	r0, {r0}^
    17d4:	db000000 	blle	17dc <_monitor_vecs-0xfff824>
    17d8:	01000000 	mrseq	r0, (UNDEF: 0)
    17dc:	00005c00 	andeq	r5, r0, r0, lsl #24
    17e0:	00000000 	andeq	r0, r0, r0
    17e4:	009c0000 	addseq	r0, ip, r0
    17e8:	00b40000 	adcseq	r0, r4, r0
    17ec:	00020000 	andeq	r0, r2, r0
    17f0:	00009f30 	andeq	r9, r0, r0, lsr pc
    17f4:	00000000 	andeq	r0, r0, r0
    17f8:	00b40000 	adcseq	r0, r4, r0
    17fc:	00c40000 	sbceq	r0, r4, r0
    1800:	000b0000 	andeq	r0, fp, r0
    1804:	2400733f 	strcs	r7, [r0], #-831	; 0x33f
    1808:	731a007c 	tstvc	sl, #124	; 0x7c
    180c:	c49f2500 	ldrgt	r2, [pc], #1280	; 1814 <_monitor_vecs-0xfff7ec>
    1810:	db000000 	blle	1818 <_monitor_vecs-0xfff7e8>
    1814:	0b000000 	bleq	181c <_monitor_vecs-0xfff7e4>
    1818:	7c733f00 	ldclvc	15, cr3, [r3]
    181c:	1a007c24 	bne	208b4 <_monitor_vecs-0xfe074c>
    1820:	9f257c73 	svcls	0x00257c73
	...
    1830:	00000010 	andeq	r0, r0, r0, lsl r0
    1834:	01700003 	cmneq	r0, r3
    1838:	0000009f 	muleq	r0, pc, r0	; <UNPREDICTABLE>
	...
    1844:	00001000 	andeq	r1, r0, r0
    1848:	30000200 	andcc	r0, r0, r0, lsl #4
    184c:	0000149f 	muleq	r0, pc, r4	; <UNPREDICTABLE>
    1850:	00002000 	andeq	r2, r0, r0
    1854:	53000100 	movwpl	r0, #256	; 0x100
	...
    1860:	00000028 	andeq	r0, r0, r8, lsr #32
    1864:	00000030 	andeq	r0, r0, r0, lsr r0
    1868:	007d0002 	rsbseq	r0, sp, r2
    186c:	00000030 	andeq	r0, r0, r0, lsr r0
    1870:	0000006c 	andeq	r0, r0, ip, rrx
    1874:	047d0002 	ldrbteq	r0, [sp], #-2
	...
    1880:	00000028 	andeq	r0, r0, r8, lsr #32
    1884:	00000034 	andeq	r0, r0, r4, lsr r0
    1888:	3c500001 	mrrccc	0, 0, r0, r0, cr1	; <UNPREDICTABLE>
    188c:	64000000 	strvs	r0, [r0]
    1890:	01000000 	mrseq	r0, (UNDEF: 0)
    1894:	00005000 	andeq	r5, r0, r0
    1898:	00000000 	andeq	r0, r0, r0
    189c:	00280000 	eoreq	r0, r8, r0
    18a0:	00400000 	subeq	r0, r0, r0
    18a4:	00010000 	andeq	r0, r1, r0
    18a8:	00004051 	andeq	r4, r0, r1, asr r0
    18ac:	00006c00 	andeq	r6, r0, r0, lsl #24
    18b0:	51000100 	mrspl	r0, (UNDEF: 16)
	...
    18bc:	00000028 	andeq	r0, r0, r8, lsr #32
    18c0:	00000058 	andeq	r0, r0, r8, asr r0
    18c4:	58520001 	ldmdapl	r2, {r0}^
    18c8:	5c000000 	stcpl	0, cr0, [r0], {0}
    18cc:	03000000 	movweq	r0, #0
    18d0:	9f7f7200 	svcls	0x007f7200
    18d4:	0000005c 	andeq	r0, r0, ip, asr r0
    18d8:	0000006c 	andeq	r0, r0, ip, rrx
    18dc:	00520001 	subseq	r0, r2, r1
    18e0:	00000000 	andeq	r0, r0, r0
    18e4:	3c000000 	stccc	0, cr0, [r0], {0}
    18e8:	64000000 	strvs	r0, [r0]
    18ec:	01000000 	mrseq	r0, (UNDEF: 0)
    18f0:	00005300 	andeq	r5, r0, r0, lsl #6
    18f4:	00000000 	andeq	r0, r0, r0
    18f8:	00400000 	subeq	r0, r0, r0
    18fc:	00640000 	rsbeq	r0, r4, r0
    1900:	00010000 	andeq	r0, r1, r0
    1904:	0000005c 	andeq	r0, r0, ip, asr r0
    1908:	00000000 	andeq	r0, r0, r0
    190c:	00006c00 	andeq	r6, r0, r0, lsl #24
    1910:	00007c00 	andeq	r7, r0, r0, lsl #24
    1914:	50000100 	andpl	r0, r0, r0, lsl #2
    1918:	00000080 	andeq	r0, r0, r0, lsl #1
    191c:	00000088 	andeq	r0, r0, r8, lsl #1
    1920:	00500001 	subseq	r0, r0, r1
    1924:	00000000 	andeq	r0, r0, r0
    1928:	a4000000 	strge	r0, [r0]
    192c:	d0000000 	andle	r0, r0, r0
    1930:	01000000 	mrseq	r0, (UNDEF: 0)
    1934:	00d05000 	sbcseq	r5, r0, r0
    1938:	00d80000 	sbcseq	r0, r8, r0
    193c:	00010000 	andeq	r0, r1, r0
    1940:	0000d852 	andeq	sp, r0, r2, asr r8
    1944:	0000e000 	andeq	lr, r0, r0
    1948:	50000100 	andpl	r0, r0, r0, lsl #2
    194c:	000000e0 	andeq	r0, r0, r0, ror #1
    1950:	000000e4 	andeq	r0, r0, r4, ror #1
    1954:	7f720003 	svcvc	0x00720003
    1958:	0000e49f 	muleq	r0, pc, r4	; <UNPREDICTABLE>
    195c:	0000e800 	andeq	lr, r0, r0, lsl #16
    1960:	50000100 	andpl	r0, r0, r0, lsl #2
	...
    196c:	000000ec 	andeq	r0, r0, ip, ror #1
    1970:	000000fc 	strdeq	r0, [r0], -ip
    1974:	fc500001 	mrrc2	0, 0, r0, r0, cr1	; <UNPREDICTABLE>
    1978:	18000000 	stmdane	r0, {}	; <UNPREDICTABLE>
    197c:	01000001 	tsteq	r0, r1
    1980:	00005300 	andeq	r5, r0, r0, lsl #6
    1984:	00000000 	andeq	r0, r0, r0
    1988:	00ec0000 	rsceq	r0, ip, r0
    198c:	00f40000 	rscseq	r0, r4, r0
    1990:	00010000 	andeq	r0, r1, r0
    1994:	00000052 	andeq	r0, r0, r2, asr r0
    1998:	00000000 	andeq	r0, r0, r0
    199c:	0000f400 	andeq	pc, r0, r0, lsl #8
    19a0:	0000fc00 	andeq	pc, r0, r0, lsl #24
    19a4:	50000100 	andpl	r0, r0, r0, lsl #2
	...
    19b0:	000000f0 	strdeq	r0, [r0], -r0	; <UNPREDICTABLE>
    19b4:	000000fc 	strdeq	r0, [r0], -ip
    19b8:	00510001 	subseq	r0, r1, r1
    19bc:	00000000 	andeq	r0, r0, r0
    19c0:	Address 0x00000000000019c0 is out of bounds.


Disassembly of section .debug_pubnames:

00000000 <.debug_pubnames>:
   0:	00000093 	muleq	r0, r3, r0
   4:	005a0002 	subseq	r0, sl, r2
   8:	07c10000 	strbeq	r0, [r1, r0]
   c:	03590000 	cmpeq	r9, #0
  10:	75640000 	strbvc	r0, [r4]!
  14:	725f706d 	subsvc	r7, pc, #109	; 0x6d
  18:	00736765 	rsbseq	r6, r3, r5, ror #14
  1c:	000003b3 			; <UNDEFINED> instruction: 0x000003b3
  20:	696e6170 	stmdbvs	lr!, {r4, r5, r6, r8, sp, lr}^
  24:	03c30063 	biceq	r0, r3, #99	; 0x63
  28:	6f640000 	svcvs	0x00640000
  2c:	646e755f 	strbtvs	r7, [lr], #-1375	; 0x55f
  30:	79006665 	stmdbvc	r0, {r0, r2, r5, r6, r9, sl, sp, lr}
  34:	64000004 	strvs	r0, [r0], #-4
  38:	72705f6f 	rsbsvc	r5, r0, #444	; 0x1bc
  3c:	74656665 	strbtvc	r6, [r5], #-1637	; 0x665
  40:	9f006863 	svcls	0x00006863
  44:	64000004 	strvs	r0, [r0], #-4
  48:	61645f6f 	cmnvs	r4, pc, ror #30
  4c:	74726f62 	ldrbtvc	r6, [r2], #-3938	; 0xf62
  50:	0004c500 	andeq	ip, r4, r0, lsl #10
  54:	5f6f6400 	svcpl	0x006f6400
  58:	65736572 	ldrbvs	r6, [r3, #-1394]!	; 0x572
  5c:	64657672 	strbtvs	r7, [r5], #-1650	; 0x672
  60:	0004eb00 	andeq	lr, r4, r0, lsl #22
  64:	5f6f6400 	svcpl	0x006f6400
  68:	00697773 	rsbeq	r7, r9, r3, ror r7
  6c:	00000514 	andeq	r0, r0, r4, lsl r5
  70:	695f6f64 	ldmdbvs	pc, {r2, r5, r6, r8, r9, sl, fp, sp, lr}^	; <UNPREDICTABLE>
  74:	3c007172 	stfccs	f7, [r0], {114}	; 0x72
  78:	64000005 	strvs	r0, [r0], #-5
  7c:	69665f6f 	stmdbvs	r6!, {r0, r1, r2, r3, r5, r6, r8, r9, sl, fp, ip, lr}^
  80:	05640071 	strbeq	r0, [r4, #-113]!	; 0x71
  84:	74730000 	ldrbtvc	r0, [r3]
  88:	5f747261 	svcpl	0x00747261
  8c:	6e72656b 	cdpvs	5, 7, cr6, cr2, cr11, {3}
  90:	00006c65 	andeq	r6, r0, r5, ror #24
  94:	5d000000 	stcpl	0, cr0, [r0]
  98:	02000000 	andeq	r0, r0, #0
  9c:	00081b00 	andeq	r1, r8, r0, lsl #22
  a0:	00031d00 	andeq	r1, r3, r0, lsl #26
  a4:	00008000 	andeq	r8, r0, r0
  a8:	72617500 	rsbvc	r7, r1, #0
  ac:	75705f74 	ldrbvc	r5, [r0, #-3956]!	; 0xf74
  b0:	e5006374 	str	r6, [r0, #-884]	; 0x374
  b4:	75000000 	strvc	r0, [r0]
  b8:	5f747261 	svcpl	0x00747261
  bc:	63746567 	cmnvs	r4, #432013312	; 0x19c00000
  c0:	00013000 	andeq	r3, r1, r0
  c4:	72617500 	rsbvc	r7, r1, #0
  c8:	6c665f74 	stclvs	15, cr5, [r6], #-464	; 0xfffffe30
  cc:	5f687375 	svcpl	0x00687375
  d0:	ac007872 	stcge	8, cr7, [r0], {114}	; 0x72
  d4:	75000001 	strvc	r0, [r0, #-1]
  d8:	5f747261 	svcpl	0x00747261
  dc:	61736964 	cmnvs	r3, r4, ror #18
  e0:	00656c62 	rsbeq	r6, r5, r2, ror #24
  e4:	000001e4 	andeq	r0, r0, r4, ror #3
  e8:	74726175 	ldrbtvc	r6, [r2], #-373	; 0x175
  ec:	616e655f 	cmnvs	lr, pc, asr r5
  f0:	00656c62 	rsbeq	r6, r5, r2, ror #24
  f4:	00000000 	andeq	r0, r0, r0
  f8:	00000035 	andeq	r0, r0, r5, lsr r0
  fc:	0b380002 	bleq	e0010c <_monitor_vecs-0x200ef4>
 100:	03620000 	cmneq	r2, #0
 104:	019b0000 	orrseq	r0, fp, r0
 108:	69700000 	ldmdbvs	r0!, {}^	; <UNPREDICTABLE>
 10c:	78756d6e 	ldmdavc	r5!, {r1, r2, r3, r5, r6, r8, sl, fp, sp, lr}^
 110:	6766635f 			; <UNDEFINED> instruction: 0x6766635f
 114:	656e6f5f 	strbvs	r6, [lr, #-3935]!	; 0xf5f
 118:	00030d00 	andeq	r0, r3, r0, lsl #26
 11c:	6e697000 	cdpvs	0, 6, cr7, cr9, cr0, {0}
 120:	5f78756d 	svcpl	0x0078756d
 124:	5f676663 	svcpl	0x00676663
 128:	796e616d 	stmdbvc	lr!, {r0, r2, r3, r5, r6, r8, sp, lr}^
 12c:	00000000 	andeq	r0, r0, r0
 130:	00008900 	andeq	r8, r0, r0, lsl #18
 134:	f5000200 			; <UNDEFINED> instruction: 0xf5000200
 138:	6e00000e 	cdpvs	0, 0, cr0, cr0, cr14, {0}
 13c:	20000016 	andcs	r0, r0, r6, lsl r0
 140:	6d00000f 	stcvs	0, cr0, [r0, #-60]	; 0xffffffc4
 144:	705f6e6f 	subsvc	r6, pc, pc, ror #28
 148:	63696e61 	cmnvs	r9, #1552	; 0x610
 14c:	000f3400 	andeq	r3, pc, r0, lsl #8
 150:	61657200 	cmnvs	r5, r0, lsl #4
 154:	656d5f64 	strbvs	r5, [sp, #-3940]!	; 0xf64
 158:	1041006d 	subne	r0, r1, sp, rrx
 15c:	72770000 	rsbsvc	r0, r7, #0
 160:	5f657469 	svcpl	0x00657469
 164:	006d656d 	rsbeq	r6, sp, sp, ror #10
 168:	000012e8 	andeq	r1, r0, r8, ror #5
 16c:	73626467 	cmnvc	r2, #1728053248	; 0x67000000
 170:	5f627574 	svcpl	0x00627574
 174:	685f6f69 	ldmdavs	pc, {r0, r3, r5, r6, r8, r9, sl, fp, sp, lr}^	; <UNPREDICTABLE>
 178:	6c646e61 	stclvs	14, cr6, [r4], #-388	; 0xfffffe7c
 17c:	b2007265 	andlt	r7, r0, #1342177286	; 0x50000006
 180:	67000014 	smladvs	r0, r4, r0, r0
 184:	74736264 	ldrbtvc	r6, [r3], #-612	; 0x264
 188:	735f6275 	cmpvc	pc, #1342177287	; 0x50000007
 18c:	685f636d 	ldmdavs	pc, {r0, r2, r3, r5, r6, r8, r9, sp, lr}^	; <UNPREDICTABLE>
 190:	6c646e61 	stclvs	14, cr6, [r4], #-388	; 0xfffffe7c
 194:	08007265 	stmdaeq	r0, {r0, r2, r5, r6, r9, ip, sp, lr}
 198:	67000015 	smladvs	r0, r5, r0, r0
 19c:	74736264 	ldrbtvc	r6, [r3], #-612	; 0x264
 1a0:	695f6275 	ldmdbvs	pc, {r0, r2, r4, r5, r6, r9, sp, lr}^	; <UNPREDICTABLE>
 1a4:	0074696e 	rsbseq	r6, r4, lr, ror #18
 1a8:	0000165a 	andeq	r1, r0, sl, asr r6
 1ac:	696e6f6d 	stmdbvs	lr!, {r0, r2, r3, r5, r6, r8, r9, sl, fp, sp, lr}^
 1b0:	5f726f74 	svcpl	0x00726f74
 1b4:	63617473 	cmnvs	r1, #1929379840	; 0x73000000
 1b8:	0000006b 	andeq	r0, r0, fp, rrx
 1bc:	00360000 	eorseq	r0, r6, r0
 1c0:	00020000 	andeq	r0, r2, r0
 1c4:	00002563 	andeq	r2, r0, r3, ror #10
 1c8:	00000150 	andeq	r0, r0, r0, asr r1
 1cc:	00000025 	andeq	r0, r0, r5, lsr #32
 1d0:	73747570 	cmnvc	r4, #469762048	; 0x1c000000
 1d4:	00006d00 	andeq	r6, r0, r0, lsl #26
 1d8:	74757000 	ldrbtvc	r7, [r5]
 1dc:	7865685f 	stmdavc	r5!, {r0, r1, r2, r3, r4, r6, fp, sp, lr}^
 1e0:	7479625f 	ldrbtvc	r6, [r9], #-607	; 0x25f
 1e4:	00ce0065 	sbceq	r0, lr, r5, rrx
 1e8:	72700000 	rsbsvc	r0, r0, #0
 1ec:	5f746e69 	svcpl	0x00746e69
 1f0:	00786568 	rsbseq	r6, r8, r8, ror #10
 1f4:	00000000 	andeq	r0, r0, r0
 1f8:	00000046 	andeq	r0, r0, r6, asr #32
 1fc:	26b30002 	ldrtcs	r0, [r3], r2
 200:	01e70000 	mvneq	r0, r0
 204:	00690000 	rsbeq	r0, r9, r0
 208:	74730000 	ldrbtvc	r0, [r3]
 20c:	6e656c72 	mcrvs	12, 3, r6, cr5, cr2, {3}
 210:	0000a400 	andeq	sl, r0, r0, lsl #8
 214:	72747300 	rsbsvc	r7, r4, #0
 218:	706d636e 	rsbvc	r6, sp, lr, ror #6
 21c:	00010e00 	andeq	r0, r1, r0, lsl #28
 220:	5f736900 	svcpl	0x00736900
 224:	00786568 	rsbseq	r6, r8, r8, ror #10
 228:	00000138 	andeq	r0, r0, r8, lsr r1
 22c:	63727473 	cmnvs	r2, #1929379840	; 0x73000000
 230:	77007268 	strvc	r7, [r0, -r8, ror #4]
 234:	6d000001 	stcvs	0, cr0, [r0, #-4]
 238:	70636d65 	rsbvc	r6, r3, r5, ror #26
 23c:	00000079 	andeq	r0, r0, r9, ror r0
	...

Disassembly of section .debug_pubtypes:

00000000 <.debug_pubtypes>:
   0:	00000057 	andeq	r0, r0, r7, asr r0
   4:	005a0002 	subseq	r0, sl, r2
   8:	07c10000 	strbeq	r0, [r1, r0]
   c:	00250000 	eoreq	r0, r5, r0
  10:	70670000 	rsbvc	r0, r7, r0
  14:	665f6f69 	ldrbvs	r6, [pc], -r9, ror #30
  18:	74636e75 	strbtvc	r6, [r3], #-3701	; 0xe75
  1c:	006e6f69 	rsbeq	r6, lr, r9, ror #30
  20:	00000068 	andeq	r0, r0, r8, rrx
  24:	5f647570 	svcpl	0x00647570
  28:	65646f6d 	strbvs	r6, [r4, #-3949]!	; 0xf6d
  2c:	00008700 	andeq	r8, r0, r0, lsl #14
  30:	6e697000 	cdpvs	0, 6, cr7, cr9, cr0, {0}
  34:	5f78756d 	svcpl	0x0078756d
  38:	00676663 	rsbeq	r6, r7, r3, ror #12
  3c:	000000c5 	andeq	r0, r0, r5, asr #1
  40:	5f677562 	svcpl	0x00677562
  44:	72746e65 	rsbsvc	r6, r4, #1616	; 0x650
  48:	018c0079 	orreq	r0, ip, r9, ror r0
  4c:	72610000 	rsbvc	r0, r1, #0
  50:	65725f6d 	ldrbvs	r5, [r2, #-3949]!	; 0xf6d
  54:	00007367 	andeq	r7, r0, r7, ror #6
  58:	3c000000 	stccc	0, cr0, [r0], {0}
  5c:	02000000 	andeq	r0, r0, #0
  60:	000b3800 	andeq	r3, fp, r0, lsl #16
  64:	00036200 	andeq	r6, r3, r0, lsl #4
  68:	00002500 	andeq	r2, r0, r0, lsl #10
  6c:	69706700 	ldmdbvs	r0!, {r8, r9, sl, sp, lr}^
  70:	75665f6f 	strbvc	r5, [r6, #-3951]!	; 0xf6f
  74:	6974636e 	ldmdbvs	r4!, {r1, r2, r3, r5, r6, r8, r9, sp, lr}^
  78:	68006e6f 	stmdavs	r0, {r0, r1, r2, r3, r5, r6, r9, sl, fp, sp, lr}
  7c:	70000000 	andvc	r0, r0, r0
  80:	6d5f6475 	cfldrdvs	mvd6, [pc, #-468]	; fffffeb4 <__bug_end+0xfeff9f30>
  84:	0065646f 	rsbeq	r6, r5, pc, ror #8
  88:	00000087 	andeq	r0, r0, r7, lsl #1
  8c:	6d6e6970 	stclvs	9, cr6, [lr, #-448]!	; 0xfffffe40
  90:	635f7875 	cmpvs	pc, #7667712	; 0x750000
  94:	00006766 	andeq	r6, r0, r6, ror #14
  98:	83000000 	movwhi	r0, #0
  9c:	02000000 	andeq	r0, r0, #0
  a0:	000ef500 	andeq	pc, lr, r0, lsl #10
  a4:	00166e00 	andseq	r6, r6, r0, lsl #28
  a8:	0000a700 	andeq	sl, r0, r0, lsl #14
  ac:	6d726100 	ldfvse	f6, [r2]
  b0:	6765725f 			; <UNDEFINED> instruction: 0x6765725f
  b4:	00d00073 	sbcseq	r0, r0, r3, ror r0
  b8:	69730000 	ldmdbvs	r3!, {}^	; <UNPREDICTABLE>
  bc:	745f657a 	ldrbvc	r6, [pc], #-1402	; c4 <_monitor_vecs-0x1000f3c>
  c0:	0000db00 	andeq	sp, r0, r0, lsl #22
  c4:	69737300 	ldmdbvs	r3!, {r8, r9, ip, sp, lr}^
  c8:	745f657a 	ldrbvc	r6, [pc], #-1402	; d0 <_monitor_vecs-0x1000f30>
  cc:	0000ed00 	andeq	lr, r0, r0, lsl #26
  d0:	6e697500 	cdpvs	5, 6, cr7, cr9, cr0, {0}
  d4:	745f3874 	ldrbvc	r3, [pc], #-2164	; dc <_monitor_vecs-0x1000f24>
  d8:	0000ff00 	andeq	pc, r0, r0, lsl #30
  dc:	6e697500 	cdpvs	5, 6, cr7, cr9, cr0, {0}
  e0:	5f363174 	svcpl	0x00363174
  e4:	01110074 	tsteq	r1, r4, ror r0
  e8:	69750000 	ldmdbvs	r5!, {}^	; <UNPREDICTABLE>
  ec:	3233746e 	eorscc	r7, r3, #1845493760	; 0x6e000000
  f0:	1c00745f 	cfstrsne	mvf7, [r0], {95}	; 0x5f
  f4:	62000001 	andvs	r0, r0, #1
  f8:	006c6f6f 	rsbeq	r6, ip, pc, ror #30
  fc:	00000127 	andeq	r0, r0, r7, lsr #2
 100:	65766f69 	ldrbvs	r6, [r6, #-3945]!	; 0xf69
 104:	01500063 	cmpeq	r0, r3, rrx
 108:	6b620000 	blvs	1880110 <__bug_end+0x87a18c>
 10c:	7f007470 	svcvc	0x00007470
 110:	63000001 	movwvs	r0, #1
 114:	6168646d 	cmnvs	r8, sp, ror #8
 118:	656c646e 	strbvs	r6, [ip, #-1134]!	; 0x46e
 11c:	00000072 	andeq	r0, r0, r2, ror r0
 120:	00220000 	eoreq	r0, r2, r0
 124:	00020000 	andeq	r0, r2, r0
 128:	000026b3 			; <UNDEFINED> instruction: 0x000026b3
 12c:	000001e7 	andeq	r0, r0, r7, ror #3
 130:	00000025 	andeq	r0, r0, r5, lsr #32
 134:	657a6973 	ldrbvs	r6, [sl, #-2419]!	; 0x973
 138:	4c00745f 	cfstrsmi	mvf7, [r0], {95}	; 0x5f
 13c:	62000000 	andvs	r0, r0, #0
 140:	006c6f6f 	rsbeq	r6, ip, pc, ror #30
 144:	00000000 	andeq	r0, r0, r0

Disassembly of section .debug_str:

00000000 <.debug_str>:
   0:	735f6f64 	cmpvc	pc, #400	; 0x190
   4:	62006977 	andvs	r6, r0, #1949696	; 0x1dc000
   8:	655f6775 	ldrbvs	r6, [pc, #-1909]	; fffff89b <__bug_end+0xfeff9917>
   c:	7972746e 	ldmdbvc	r2!, {r1, r2, r3, r5, r6, sl, ip, sp, lr}^
  10:	44555000 	ldrbmi	r5, [r5]
  14:	0050555f 	subseq	r5, r0, pc, asr r5
  18:	6e72656b 	cdpvs	5, 7, cr6, cr2, cr11, {3}
  1c:	632e6c65 	teqvs	lr, #25856	; 0x6500
  20:	5f6f6400 	svcpl	0x006f6400
  24:	65736572 	ldrbvs	r6, [r3, #-1394]!	; 0x572
  28:	64657672 	strbtvs	r7, [r5], #-1650	; 0x672
  2c:	554e4700 	strbpl	r4, [lr, #-1792]	; 0x700
  30:	34204320 	strtcc	r4, [r0], #-800	; 0x320
  34:	322e352e 	eorcc	r3, lr, #192937984	; 0xb800000
  38:	6f682f00 	svcvs	0x00682f00
  3c:	752f656d 	strvc	r6, [pc, #-1389]!	; fffffad7 <__bug_end+0xfeff9b53>
  40:	2f726573 	svccs	0x00726573
  44:	706f7244 	rsbvc	r7, pc, r4, asr #4
  48:	2f786f62 	svccs	0x00786f62
  4c:	68746967 	ldmdavs	r4!, {r0, r1, r2, r5, r6, r8, fp, sp, lr}^
  50:	522f6275 	eorpl	r6, pc, #1342177287	; 0x50000007
  54:	62707361 	rsbsvs	r7, r0, #-2080374783	; 0x84000001
  58:	79727265 	ldmdbvc	r2!, {r0, r2, r5, r6, r9, ip, sp, lr}^
  5c:	722f6950 	eorvc	r6, pc, #1310720	; 0x140000
  60:	672d6970 			; <UNDEFINED> instruction: 0x672d6970
  64:	73006264 	movwvc	r6, #612	; 0x264
  68:	74726f68 	ldrbtvc	r6, [r2], #-3944	; 0xf68
  6c:	736e7520 	cmnvc	lr, #134217728	; 0x8000000
  70:	656e6769 	strbvs	r6, [lr, #-1897]!	; 0x769
  74:	6e692064 	cdpvs	0, 6, cr2, cr9, cr4, {3}
  78:	65640074 	strbvs	r0, [r4, #-116]!	; 0x74
  7c:	5f79616c 	svcpl	0x0079616c
  80:	79635f6e 	stmdbvc	r3!, {r1, r2, r3, r5, r6, r8, r9, sl, fp, ip, lr}^
  84:	73656c63 	cmnvc	r5, #25344	; 0x6300
  88:	69727700 	ldmdbvs	r2!, {r8, r9, sl, ip, sp, lr}^
  8c:	006c6574 	rsbeq	r6, ip, r4, ror r5
  90:	755f6f64 	ldrbvc	r6, [pc, #-3940]	; fffff134 <__bug_end+0xfeff91b0>
  94:	6665646e 	strbtvs	r6, [r5], -lr, ror #8
  98:	61657200 	cmnvs	r5, r0, lsl #4
  9c:	6c006c64 	stcvs	12, cr6, [r0], {100}	; 0x64
  a0:	20676e6f 	rsbcs	r6, r7, pc, ror #28
  a4:	69736e75 	ldmdbvs	r3!, {r0, r2, r4, r5, r6, r9, sl, fp, sp, lr}^
  a8:	64656e67 	strbtvs	r6, [r5], #-3687	; 0xe67
  ac:	746e6920 	strbtvc	r6, [lr], #-2336	; 0x920
  b0:	5f4e4600 	svcpl	0x004e4600
  b4:	0054554f 	subseq	r5, r4, pc, asr #10
  b8:	646e6966 	strbtvs	r6, [lr], #-2406	; 0x966
  bc:	6775625f 			; <UNDEFINED> instruction: 0x6775625f
  c0:	6e6f6c00 	cdpvs	12, 6, cr6, cr15, cr0, {0}
  c4:	6e692067 	cdpvs	0, 6, cr2, cr9, cr7, {3}
  c8:	70670074 	rsbvc	r0, r7, r4, ror r0
  cc:	665f6f69 	ldrbvs	r6, [pc], -r9, ror #30
  d0:	74636e75 	strbtvc	r6, [r3], #-3701	; 0xe75
  d4:	006e6f69 	rsbeq	r6, lr, r9, ror #30
  d8:	706d7564 	rsbvc	r7, sp, r4, ror #10
  dc:	6765725f 			; <UNDEFINED> instruction: 0x6765725f
  e0:	6f640073 	svcvs	0x00640073
  e4:	7172695f 	cmnvc	r2, pc, asr r9
  e8:	5f4e4600 	svcpl	0x004e4600
  ec:	4b53414d 	blmi	14d0628 <__bug_end+0x4ca6a4>
  f0:	67657200 	strbvs	r7, [r5, -r0, lsl #4]!
  f4:	6d616e5f 	stclvs	14, cr6, [r1, #-380]!	; 0xfffffe84
  f8:	64007365 	strvs	r7, [r0], #-869	; 0x365
  fc:	72705f6f 	rsbsvc	r5, r0, #444	; 0x1bc
 100:	74656665 	strbtvc	r6, [r5], #-1637	; 0x665
 104:	64006863 	strvs	r6, [r0], #-2147	; 0x863
 108:	61645f6f 	cmnvs	r4, pc, ror #30
 10c:	74726f62 	ldrbtvc	r6, [r2], #-3938	; 0xf62
 110:	696e6900 	stmdbvs	lr!, {r8, fp, sp, lr}^
 114:	73625f74 	cmnvc	r2, #464	; 0x1d0
 118:	6e750073 	mrcvs	0, 3, r0, cr5, cr3, {3}
 11c:	6e676973 	mcrvs	9, 3, r6, cr7, cr3, {3}
 120:	63206465 	teqvs	r0, #1694498816	; 0x65000000
 124:	00726168 	rsbseq	r6, r2, r8, ror #2
 128:	656c6966 	strbvs	r6, [ip, #-2406]!	; 0x966
 12c:	656d616e 	strbvs	r6, [sp, #-366]!	; 0x16e
 130:	5f4e4600 	svcpl	0x004e4600
 134:	5f004e49 	svcpl	0x00004e49
 138:	7373625f 	cmnvc	r3, #-268435451	; 0xf0000005
 13c:	6174735f 	cmnvs	r4, pc, asr r3
 140:	73007472 	movwvc	r7, #1138	; 0x472
 144:	74726174 	ldrbtvc	r6, [r2], #-372	; 0x174
 148:	72656b5f 	rsbvc	r6, r5, #97280	; 0x17c00
 14c:	006c656e 	rsbeq	r6, ip, lr, ror #10
 150:	656e696c 	strbvs	r6, [lr, #-2412]!	; 0x96c
 154:	625f5f00 	subsvs	r5, pc, #0
 158:	735f6775 	cmpvc	pc, #30670848	; 0x1d40000
 15c:	74726174 	ldrbtvc	r6, [r2], #-372	; 0x174
 160:	5f6f6400 	svcpl	0x006f6400
 164:	00716966 	rsbseq	r6, r1, r6, ror #18
 168:	5f647570 	svcpl	0x00647570
 16c:	65646f6d 	strbvs	r6, [r4, #-3949]!	; 0xf6d
 170:	6f687300 	svcvs	0x00687300
 174:	75625f77 	strbvc	r5, [r2, #-3959]!	; 0xf77
 178:	72610067 	rsbvc	r0, r1, #103	; 0x67
 17c:	65725f6d 	ldrbvs	r5, [r2, #-3949]!	; 0xf6d
 180:	70007367 	andvc	r7, r0, r7, ror #6
 184:	756d6e69 	strbvc	r6, [sp, #-3689]!	; 0xe69
 188:	66635f78 	uqsub16vs	r5, r3, r8
 18c:	50430067 	subpl	r0, r3, r7, rrx
 190:	46005253 			; <UNDEFINED> instruction: 0x46005253
 194:	00305f4e 	eorseq	r5, r0, lr, asr #30
 198:	315f4e46 	cmpcc	pc, r6, asr #28
 19c:	5f4e4600 	svcpl	0x004e4600
 1a0:	4e460032 	mcrmi	0, 2, r0, cr6, cr2, {1}
 1a4:	4600335f 			; <UNDEFINED> instruction: 0x4600335f
 1a8:	00345f4e 	eorseq	r5, r4, lr, asr #30
 1ac:	355f4e46 	ldrbcc	r4, [pc, #-3654]	; fffff36e <__bug_end+0xfeff93ea>
 1b0:	61746a00 	cmnvs	r4, r0, lsl #20
 1b4:	6e695f67 	cdpvs	15, 6, cr5, cr9, cr7, {3}
 1b8:	50007469 	andpl	r7, r0, r9, ror #8
 1bc:	445f4455 	ldrbmi	r4, [pc], #-1109	; 1c4 <_monitor_vecs-0x1000e3c>
 1c0:	004e574f 	subeq	r5, lr, pc, asr #14
 1c4:	5f445550 	svcpl	0x00445550
 1c8:	0046464f 	subeq	r4, r6, pc, asr #12
 1cc:	75625f5f 	strbvc	r5, [r2, #-3935]!	; 0xf5f
 1d0:	6e655f67 	cdpvs	15, 6, cr5, cr5, cr7, {3}
 1d4:	5f5f0064 	svcpl	0x005f0064
 1d8:	5f737362 	svcpl	0x00737362
 1dc:	00646e65 	rsbeq	r6, r4, r5, ror #28
 1e0:	74616c70 	strbtvc	r6, [r1], #-3184	; 0xc70
 1e4:	6d726f66 	ldclvs	15, cr6, [r2, #-408]!	; 0xfffffe68
 1e8:	696e695f 	stmdbvs	lr!, {r0, r1, r2, r3, r4, r6, r8, fp, sp, lr}^
 1ec:	61680074 	smcvs	32772	; 0x8004
 1f0:	656c646e 	strbvs	r6, [ip, #-1134]!	; 0x46e
 1f4:	6775625f 			; <UNDEFINED> instruction: 0x6775625f
 1f8:	61750073 	cmnvs	r5, r3, ror r0
 1fc:	632e7472 	teqvs	lr, #1912602624	; 0x72000000
 200:	72617500 	rsbvc	r7, r1, #0
 204:	65675f74 	strbvs	r5, [r7, #-3956]!	; 0xf74
 208:	75006374 	strvc	r6, [r0, #-884]	; 0x374
 20c:	5f747261 	svcpl	0x00747261
 210:	73756c66 	cmnvc	r5, #26112	; 0x6600
 214:	78725f68 	ldmdavc	r2!, {r3, r5, r6, r8, r9, sl, fp, ip, lr}^
 218:	72617500 	rsbvc	r7, r1, #0
 21c:	6e655f74 	mcrvs	15, 3, r5, cr5, cr4, {3}
 220:	656c6261 	strbvs	r6, [ip, #-609]!	; 0x261
 224:	72617500 	rsbvc	r7, r1, #0
 228:	69645f74 	stmdbvs	r4!, {r2, r4, r5, r6, r8, r9, sl, fp, ip, lr}^
 22c:	6c626173 	stfvse	f6, [r2], #-460	; 0xfffffe34
 230:	61750065 	cmnvs	r5, r5, rrx
 234:	705f7472 	subsvc	r7, pc, r2, ror r4	; <UNPREDICTABLE>
 238:	00637475 	rsbeq	r7, r3, r5, ror r4
 23c:	67616c66 	strbvs	r6, [r1, -r6, ror #24]!
 240:	69700073 	ldmdbvs	r0!, {r0, r1, r4, r5, r6}^
 244:	78756d6e 	ldmdavc	r5!, {r1, r2, r3, r5, r6, r8, sl, fp, sp, lr}^
 248:	6766635f 			; <UNDEFINED> instruction: 0x6766635f
 24c:	6475705f 	ldrbtvs	r7, [r5], #-95	; 0x5f
 250:	756f6300 	strbvc	r6, [pc, #-768]!	; ffffff58 <__bug_end+0xfeff9fd4>
 254:	7000746e 	andvc	r7, r0, lr, ror #8
 258:	756d6e69 	strbvc	r6, [sp, #-3689]!	; 0xe69
 25c:	00632e78 	rsbeq	r2, r3, r8, ror lr
 260:	6d6e6970 	stclvs	9, cr6, [lr, #-448]!	; 0xfffffe40
 264:	635f7875 	cmpvs	pc, #7667712	; 0x750000
 268:	6f5f6766 	svcvs	0x005f6766
 26c:	7000656e 	andvc	r6, r0, lr, ror #10
 270:	756d6e69 	strbvc	r6, [sp, #-3689]!	; 0xe69
 274:	66635f78 	uqsub16vs	r5, r3, r8
 278:	616d5f67 	cmnvs	sp, r7, ror #30
 27c:	6600796e 	strvs	r7, [r0], -lr, ror #18
 280:	5f6c6573 	svcpl	0x006c6573
 284:	6b6e6162 	blvs	1b98814 <__bug_end+0xb92890>
 288:	6e697000 	cdpvs	0, 6, cr7, cr9, cr0, {0}
 28c:	5f78756d 	svcpl	0x0078756d
 290:	5f676663 	svcpl	0x00676663
 294:	6c657366 	stclvs	3, cr7, [r5], #-408	; 0xfffffe68
 298:	65736600 	ldrbvs	r6, [r3, #-1536]!	; 0x600
 29c:	756e5f6c 	strbvc	r5, [lr, #-3948]!	; 0xf6c
 2a0:	6968006d 	stmdbvs	r8!, {r0, r2, r3, r5, r6}^
 2a4:	72625f74 	rsbvc	r5, r2, #464	; 0x1d0
 2a8:	706b6165 	rsbvc	r6, fp, r5, ror #2
 2ac:	746e696f 	strbtvc	r6, [lr], #-2415	; 0x96f
 2b0:	6f637600 	svcvs	0x00637600
 2b4:	715f746e 	cmpvc	pc, lr, ror #8
 2b8:	79726575 	ldmdbvc	r2!, {r0, r2, r4, r5, r6, r8, sl, sp, lr}^
 2bc:	69727700 	ldmdbvs	r2!, {r8, r9, sl, ip, sp, lr}^
 2c0:	725f6574 	subsvc	r6, pc, #486539264	; 0x1d000000
 2c4:	00736765 	rsbseq	r6, r3, r5, ror #14
 2c8:	64616572 	strbtvs	r6, [r1], #-1394	; 0x572
 2cc:	6e656c5f 	mcrvs	12, 3, r6, cr5, cr15, {2}
 2d0:	78656800 	stmdavc	r5!, {fp, sp, lr}^
 2d4:	62696e5f 	rsbvs	r6, r9, #1520	; 0x5f0
 2d8:	5f656c62 	svcpl	0x00656c62
 2dc:	006c6176 	rsbeq	r6, ip, r6, ror r1
 2e0:	64616572 	strbtvs	r6, [r1], #-1394	; 0x572
 2e4:	6569665f 	strbvs	r6, [r9, #-1631]!	; 0x65f
 2e8:	6900646c 	stmdbvs	r0, {r2, r3, r5, r6, sl, sp, lr}
 2ec:	6c5f766f 	mrrcvs	6, 6, r7, pc, cr15	; <UNPREDICTABLE>
 2f0:	67006e65 	strvs	r6, [r0, -r5, ror #28]
 2f4:	74736264 	ldrbtvc	r6, [r3], #-612	; 0x264
 2f8:	735f6275 	cmpvc	pc, #1342177287	; 0x50000007
 2fc:	685f636d 	ldmdavs	pc, {r0, r2, r3, r5, r6, r8, r9, sp, lr}^	; <UNPREDICTABLE>
 300:	6c646e61 	stclvs	14, cr6, [r4], #-388	; 0xfffffe7c
 304:	77007265 	strvc	r7, [r0, -r5, ror #4]
 308:	74746972 	ldrbtvc	r6, [r4], #-2418	; 0x972
 30c:	67006e65 	strvs	r6, [r0, -r5, ror #28]
 310:	74736264 	ldrbtvc	r6, [r3], #-612	; 0x264
 314:	695f6275 	ldmdbvs	pc, {r0, r2, r4, r5, r6, r9, sp, lr}^	; <UNPREDICTABLE>
 318:	61685f6f 	cmnvs	r8, pc, ror #30
 31c:	656c646e 	strbvs	r6, [ip, #-1134]!	; 0x46e
 320:	63640072 	cmnvs	r4, #114	; 0x72
 324:	65686361 	strbvs	r6, [r8, #-865]!	; 0x361
 328:	756c665f 	strbvc	r6, [ip, #-1631]!	; 0x65f
 32c:	725f6873 	subsvc	r6, pc, #7536640	; 0x730000
 330:	65676e61 	strbvs	r6, [r7, #-3681]!	; 0xe61
 334:	6e616800 	cdpvs	8, 6, cr6, cr1, cr0, {0}
 338:	72656c64 	rsbvc	r6, r5, #25600	; 0x6400
 33c:	74730073 	ldrbtvc	r0, [r3], #-115	; 0x73
 340:	735f706f 	cmpvc	pc, #111	; 0x6f
 344:	75746174 	ldrbvc	r6, [r4, #-372]!	; 0x174
 348:	65720073 	ldrbvs	r0, [r2, #-115]!	; 0x73
 34c:	6c007073 	stcvs	0, cr7, [r0], {115}	; 0x73
 350:	756b6f6f 	strbvc	r6, [fp, #-3951]!	; 0xf6f
 354:	6d635f70 	stclvs	15, cr5, [r3, #-448]!	; 0xfffffe40
 358:	6e616864 	cdpvs	8, 6, cr6, cr1, cr4, {3}
 35c:	72656c64 	rsbvc	r6, r5, #25600	; 0x6400
 360:	69737300 	ldmdbvs	r3!, {r8, r9, ip, sp, lr}^
 364:	745f657a 	ldrbvc	r6, [pc], #-1402	; 36c <_monitor_vecs-0x1000c94>
 368:	61657200 	cmnvs	r5, r0, lsl #4
 36c:	73635f64 	cmnvc	r3, #400	; 0x190
 370:	73006d75 	movwvc	r6, #3445	; 0xd75
 374:	5f646e65 	svcpl	0x00646e65
 378:	70736572 	rsbsvc	r6, r3, r2, ror r5
 37c:	65736e6f 	ldrbvs	r6, [r3, #-3695]!	; 0xe6f
 380:	6e6f6d00 	cdpvs	13, 6, cr6, cr15, cr0, {0}
 384:	726f7469 	rsbvc	r7, pc, #1761607680	; 0x69000000
 388:	6174735f 	cmnvs	r4, pc, asr r3
 38c:	75006b63 	strvc	r6, [r0, #-2915]	; 0xb63
 390:	38746e69 	ldmdacc	r4!, {r0, r3, r5, r6, r9, sl, fp, sp, lr}^
 394:	6400745f 	strvs	r7, [r0], #-1119	; 0x45f
 398:	6d696c65 	stclvs	12, cr6, [r9, #-404]!	; 0xfffffe6c
 39c:	61636900 	cmnvs	r3, r0, lsl #18
 3a0:	5f656863 	svcpl	0x00656863
 3a4:	61766e69 	cmnvs	r6, r9, ror #28
 3a8:	61725f6c 	cmnvs	r2, ip, ror #30
 3ac:	0065676e 	rsbeq	r6, r5, lr, ror #14
 3b0:	635f6f64 	cmpvs	pc, #400	; 0x190
 3b4:	69746e6f 	ldmdbvs	r4!, {r0, r1, r2, r3, r5, r6, r9, sl, fp, sp, lr}^
 3b8:	0065756e 	rsbeq	r7, r5, lr, ror #10
 3bc:	5f747570 	svcpl	0x00747570
 3c0:	00676572 	rsbeq	r6, r7, r2, ror r5
 3c4:	74696177 	strbtvc	r6, [r9], #-375	; 0x177
 3c8:	6f6f6200 	svcvs	0x006f6200
 3cc:	6467006c 	strbtvs	r0, [r7], #-108	; 0x6c
 3d0:	75747362 	ldrbvc	r7, [r4, #-866]!	; 0x362
 3d4:	6e695f62 	cdpvs	15, 6, cr5, cr9, cr2, {3}
 3d8:	62007469 	andvs	r7, r0, #1761607680	; 0x69000000
 3dc:	69727261 	ldmdbvs	r2!, {r0, r5, r6, r9, ip, sp, lr}^
 3e0:	69007265 	stmdbvs	r0, {r0, r2, r5, r6, r9, ip, sp, lr}
 3e4:	0074736e 	rsbseq	r7, r4, lr, ror #6
 3e8:	5f676572 	svcpl	0x00676572
 3ec:	6d6f7266 	sfmvs	f7, 2, [pc, #-408]!	; 25c <_monitor_vecs-0x1000da4>
 3f0:	7274735f 	rsbsvc	r7, r4, #2080374785	; 0x7c000001
 3f4:	766f6900 	strbtvc	r6, [pc], -r0, lsl #18
 3f8:	72006365 	andvc	r6, r0, #-1811939327	; 0x94000001
 3fc:	64766365 	ldrbtvs	r6, [r6], #-869	; 0x365
 400:	7573635f 	ldrbvc	r6, [r3, #-863]!	; 0x35f
 404:	7570006d 	ldrbvc	r0, [r0, #-109]!	; 0x6d
 408:	6e695f74 	mcrvs	15, 3, r5, cr9, cr4, {3}
 40c:	696c6176 	stmdbvs	ip!, {r1, r2, r4, r5, r6, r8, sp, lr}^
 410:	65725f64 	ldrbvs	r5, [r2, #-3940]!	; 0xf64
 414:	6b620067 	blvs	18805b8 <__bug_end+0x87a634>
 418:	6f5f7470 	svcvs	0x005f7470
 41c:	64670070 	strbtvs	r0, [r7], #-112	; 0x70
 420:	72775f62 	rsbsvc	r5, r7, #392	; 0x188
 424:	5f657469 	svcpl	0x00657469
 428:	006d656d 	rsbeq	r6, sp, sp, ror #10
 42c:	675f7369 	ldrbvs	r7, [pc, -r9, ror #6]
 430:	00646f6f 	rsbeq	r6, r4, pc, ror #30
 434:	5f637462 	svcpl	0x00637462
 438:	73756c66 	cmnvc	r5, #26112	; 0x6600
 43c:	73620068 	cmnvc	r2, #104	; 0x68
 440:	31706177 	cmncc	r0, r7, ror r1
 444:	6f6d0036 	svcvs	0x006d0036
 448:	61705f6e 	cmnvs	r0, lr, ror #30
 44c:	0063696e 	rsbeq	r6, r3, lr, ror #18
 450:	73656e75 	cmnvc	r5, #1872	; 0x750
 454:	65706163 	ldrbvs	r6, [r0, #-355]!	; 0x163
 458:	646d6300 	strbtvs	r6, [sp], #-768	; 0x300
 45c:	6675625f 			; <UNDEFINED> instruction: 0x6675625f
 460:	62646700 	rsbvs	r6, r4, #0
 464:	62757473 	rsbsvs	r7, r5, #1929379840	; 0x73000000
 468:	6e61685f 	mcrvs	8, 3, r6, cr1, cr15, {2}
 46c:	00656c64 	rsbeq	r6, r5, r4, ror #24
 470:	5f6b6361 	svcpl	0x006b6361
 474:	6b636170 	blvs	18d8a3c <__bug_end+0x8d2ab8>
 478:	6e007465 	cdpvs	4, 0, cr7, cr0, cr5, {3}
 47c:	00747865 	rsbseq	r7, r4, r5, ror #16
 480:	746e6975 	strbtvc	r6, [lr], #-2421	; 0x975
 484:	745f3233 	ldrbvc	r3, [pc], #-563	; 48c <_monitor_vecs-0x1000b74>
 488:	65726200 	ldrbvs	r6, [r2, #-512]!	; 0x200
 48c:	6f706b61 	svcvs	0x00706b61
 490:	73746e69 	cmnvc	r4, #1680	; 0x690
 494:	6e697500 	cdpvs	5, 6, cr7, cr9, cr0, {0}
 498:	5f363174 	svcpl	0x00363174
 49c:	65640074 	strbvs	r0, [r4, #-116]!	; 0x74
 4a0:	68636174 	stmdavs	r3!, {r2, r4, r5, r6, r8, sp, lr}^
 4a4:	736e6900 	cmnvc	lr, #0
 4a8:	5f747265 	svcpl	0x00747265
 4ac:	74706b62 	ldrbtvc	r6, [r0], #-2914	; 0xb62
 4b0:	61657200 	cmnvs	r5, r0, lsl #4
 4b4:	65685f64 	strbvs	r5, [r8, #-3940]!	; 0xf64
 4b8:	73620078 	cmnvc	r2, #120	; 0x78
 4bc:	33706177 	cmncc	r0, #-1073741795	; 0xc000001d
 4c0:	63690032 	cmnvs	r9, #50	; 0x32
 4c4:	65686361 	strbvs	r6, [r8, #-865]!	; 0x361
 4c8:	6e79735f 	mrcvs	3, 3, r7, cr9, cr15, {2}
 4cc:	61710063 	cmnvs	r1, r3, rrx
 4d0:	63617474 	cmnvs	r1, #1946157056	; 0x74000000
 4d4:	00646568 	rsbeq	r6, r4, r8, ror #10
 4d8:	75736e75 	ldrbvc	r6, [r3, #-3701]!	; 0xe75
 4dc:	726f7070 	rsbvc	r7, pc, #112	; 0x70
 4e0:	5f646574 	svcpl	0x00646574
 4e4:	7000706f 	andvc	r7, r0, pc, rrx
 4e8:	65666572 	strbvs	r6, [r6, #-1394]!	; 0x572
 4ec:	5f686374 	svcpl	0x00686374
 4f0:	73756c66 	cmnvc	r5, #26112	; 0x6600
 4f4:	65640068 	strbvs	r0, [r4, #-104]!	; 0x68
 4f8:	69746361 	ldmdbvs	r4!, {r0, r5, r6, r8, r9, sp, lr}^
 4fc:	65746176 	ldrbvs	r6, [r4, #-374]!	; 0x176
 500:	706b625f 	rsbvc	r6, fp, pc, asr r2
 504:	64670074 	strbtvs	r0, [r7], #-116	; 0x74
 508:	75747362 	ldrbvc	r7, [r4, #-866]!	; 0x362
 50c:	72625f62 	rsbvc	r5, r2, #392	; 0x188
 510:	006b6165 	rsbeq	r6, fp, r5, ror #2
 514:	5f626467 	svcpl	0x00626467
 518:	64616572 	strbtvs	r6, [r1], #-1394	; 0x572
 51c:	6d656d5f 	stclvs	13, cr6, [r5, #-380]!	; 0xfffffe84
 520:	71696600 	cmnvc	r9, r0, lsl #12
 524:	696e695f 	stmdbvs	lr!, {r0, r1, r2, r3, r4, r6, r8, fp, sp, lr}^
 528:	61730074 	cmnvs	r3, r4, ror r0
 52c:	00646576 	rsbeq	r6, r4, r6, ror r5
 530:	5f766f69 	svcpl	0x00766f69
 534:	65736162 	ldrbvs	r6, [r3, #-354]!	; 0x162
 538:	75737100 	ldrbvc	r7, [r3, #-256]!	; 0x100
 53c:	726f7070 	rsbvc	r7, pc, #112	; 0x70
 540:	00646574 	rsbeq	r6, r4, r4, ror r5
 544:	5f646461 	svcpl	0x00646461
 548:	74706b62 	ldrbtvc	r6, [r0], #-2914	; 0xb62
 54c:	61657200 	cmnvs	r5, r0, lsl #4
 550:	65725f64 	ldrbvs	r5, [r2, #-3940]!	; 0xf64
 554:	72007367 	andvc	r7, r0, #-1677721599	; 0x9c000001
 558:	766f6d65 	strbtvc	r6, [pc], -r5, ror #26
 55c:	6b625f65 	blvs	18982f8 <__bug_end+0x892374>
 560:	66007470 			; <UNDEFINED> instruction: 0x66007470
 564:	5f646e69 	svcpl	0x00646e69
 568:	74706b62 	ldrbtvc	r6, [r0], #-2914	; 0xb62
 56c:	6c656400 	cfstrdvs	mvd6, [r5]
 570:	706b625f 	rsbvc	r6, fp, pc, asr r2
 574:	64670074 	strbtvs	r0, [r7], #-116	; 0x74
 578:	75747362 	ldrbvc	r7, [r4, #-866]!	; 0x362
 57c:	65725f62 	ldrbvs	r5, [r2, #-3938]!	; 0xf62
 580:	625f7663 	subsvs	r7, pc, #103809024	; 0x6300000
 584:	00657479 	rsbeq	r7, r5, r9, ror r4
 588:	65657266 	strbvs	r7, [r5, #-614]!	; 0x266
 58c:	706b625f 	rsbvc	r6, fp, pc, asr r2
 590:	65720074 	ldrbvs	r0, [r2, #-116]!	; 0x74
 594:	615f6461 	cmpvs	pc, r1, ror #8
 598:	00726464 	rsbseq	r6, r2, r4, ror #8
 59c:	73626467 	cmnvc	r2, #1728053248	; 0x67000000
 5a0:	2e627574 	mcrcs	5, 3, r7, cr2, cr4, {3}
 5a4:	64670063 	strbtvs	r0, [r7], #-99	; 0x63
 5a8:	75747362 	ldrbvc	r7, [r4, #-866]!	; 0x362
 5ac:	72775f62 	rsbsvc	r5, r7, #392	; 0x188
 5b0:	76657469 	strbtvc	r7, [r5], -r9, ror #8
 5b4:	6c6c6100 	stfvse	f6, [ip]
 5b8:	625f636f 	subsvs	r6, pc, #-1140850687	; 0xbc000001
 5bc:	0074706b 	rsbseq	r7, r4, fp, rrx
 5c0:	6e6e7572 	mcrvs	5, 3, r7, cr14, cr2, {3}
 5c4:	00676e69 	rsbeq	r6, r7, r9, ror #28
 5c8:	64616572 	strbtvs	r6, [r1], #-1394	; 0x572
 5cc:	7479625f 	ldrbtvc	r6, [r9], #-607	; 0x25f
 5d0:	75700065 	ldrbvc	r0, [r0, #-101]!	; 0x65
 5d4:	65685f74 	strbvs	r5, [r8, #-3956]!	; 0xf74
 5d8:	79625f78 	stmdbvc	r2!, {r3, r4, r5, r6, r8, r9, sl, fp, ip, lr}^
 5dc:	64006574 	strvs	r6, [r0], #-1396	; 0x574
 5e0:	74696769 	strbtvc	r6, [r9], #-1897	; 0x769
 5e4:	72700073 	rsbsvc	r0, r0, #115	; 0x73
 5e8:	6b746e69 	blvs	1d1bf94 <__bug_end+0xd16010>
 5ec:	7000632e 	andvc	r6, r0, lr, lsr #6
 5f0:	746e6972 	strbtvc	r6, [lr], #-2418	; 0x972
 5f4:	7865685f 	stmdavc	r5!, {r0, r1, r2, r3, r4, r6, fp, sp, lr}^
 5f8:	74757000 	ldrbtvc	r7, [r5]
 5fc:	74730073 	ldrbtvc	r0, [r3], #-115	; 0x73
 600:	72686372 	rsbvc	r6, r8, #-939524095	; 0xc8000001
 604:	72747300 	rsbsvc	r7, r4, #0
 608:	2e676e69 	cdpcs	14, 6, cr6, cr7, cr9, {3}
 60c:	74730063 	ldrbtvc	r0, [r3], #-99	; 0x63
 610:	6e656c72 	mcrvs	12, 3, r6, cr5, cr2, {3}
 614:	5f736900 	svcpl	0x00736900
 618:	00786568 	rsbseq	r6, r8, r8, ror #10
 61c:	38747364 	ldmdacc	r4!, {r2, r5, r6, r8, r9, ip, sp, lr}^
 620:	6d656d00 	stclvs	13, cr6, [r5]
 624:	00797063 	rsbseq	r7, r9, r3, rrx
 628:	6e727473 	mrcvs	4, 3, r7, cr2, cr3, {3}
 62c:	00706d63 	rsbseq	r6, r0, r3, ror #26
 630:	38637273 	stmdacc	r3!, {r0, r1, r4, r5, r6, r9, ip, sp, lr}^
	...

Disassembly of section .debug_frame:

00000000 <.debug_frame>:
   0:	0000000c 	andeq	r0, r0, ip
   4:	ffffffff 			; <UNDEFINED> instruction: 0xffffffff
   8:	7c020001 	stcvc	0, cr0, [r2], {1}
   c:	000d0c0e 	andeq	r0, sp, lr, lsl #24
  10:	0000000c 	andeq	r0, r0, ip
  14:	00000000 	andeq	r0, r0, r0
  18:	010033fc 	strdeq	r3, [r0, -ip]
  1c:	0000002c 	andeq	r0, r0, ip, lsr #32
  20:	0000001c 	andeq	r0, r0, ip, lsl r0
  24:	00000000 	andeq	r0, r0, r0
  28:	01003428 	tsteq	r0, r8, lsr #8
  2c:	00000098 	muleq	r0, r8, r0
  30:	42100e42 	andsmi	r0, r0, #1056	; 0x420
  34:	0286018e 	addeq	r0, r6, #-2147483613	; 0x80000023
  38:	04840385 	streq	r0, [r4], #901	; 0x385
  3c:	00500e42 	subseq	r0, r0, r2, asr #28
  40:	0000000c 	andeq	r0, r0, ip
  44:	00000000 	andeq	r0, r0, r0
  48:	010034c0 	smlabteq	r0, r0, r4, r3
  4c:	00000008 	andeq	r0, r0, r8
  50:	00000018 	andeq	r0, r0, r8, lsl r0
  54:	00000000 	andeq	r0, r0, r0
  58:	010034c8 	smlabteq	r0, r8, r4, r3
  5c:	000000c4 	andeq	r0, r0, r4, asr #1
  60:	42100e42 	andsmi	r0, r0, #1056	; 0x420
  64:	0285018e 	addeq	r0, r5, #-2147483613	; 0x80000023
  68:	04830384 	streq	r0, [r3], #900	; 0x384
  6c:	0000000c 	andeq	r0, r0, ip
  70:	00000000 	andeq	r0, r0, r0
  74:	0100358c 	smlabbeq	r0, ip, r5, r3
  78:	00000014 	andeq	r0, r0, r4, lsl r0
  7c:	0000000c 	andeq	r0, r0, ip
  80:	00000000 	andeq	r0, r0, r0
  84:	010035a0 	smlatbeq	r0, r0, r5, r3
  88:	00000014 	andeq	r0, r0, r4, lsl r0
  8c:	0000000c 	andeq	r0, r0, ip
  90:	00000000 	andeq	r0, r0, r0
  94:	010035b4 			; <UNDEFINED> instruction: 0x010035b4
  98:	00000014 	andeq	r0, r0, r4, lsl r0
  9c:	00000014 	andeq	r0, r0, r4, lsl r0
  a0:	00000000 	andeq	r0, r0, r0
  a4:	010035c8 	smlabteq	r0, r8, r5, r3
  a8:	00000024 	andeq	r0, r0, r4, lsr #32
  ac:	42080e42 	andmi	r0, r8, #1056	; 0x420
  b0:	0284018e 	addeq	r0, r4, #-2147483613	; 0x80000023
  b4:	0000000c 	andeq	r0, r0, ip
  b8:	00000000 	andeq	r0, r0, r0
  bc:	010035ec 	smlatteq	r0, ip, r5, r3
  c0:	0000000c 	andeq	r0, r0, ip
  c4:	0000000c 	andeq	r0, r0, ip
  c8:	00000000 	andeq	r0, r0, r0
  cc:	010035f8 	strdeq	r3, [r0, -r8]
  d0:	0000000c 	andeq	r0, r0, ip
  d4:	00000014 	andeq	r0, r0, r4, lsl r0
  d8:	00000000 	andeq	r0, r0, r0
  dc:	01003604 	tsteq	r0, r4, lsl #12
  e0:	000000f0 	strdeq	r0, [r0], -r0	; <UNPREDICTABLE>
  e4:	42040e42 	andmi	r0, r4, #1056	; 0x420
  e8:	018e300e 	orreq	r3, lr, lr
  ec:	0000000c 	andeq	r0, r0, ip
  f0:	ffffffff 			; <UNDEFINED> instruction: 0xffffffff
  f4:	7c020001 	stcvc	0, cr0, [r2], {1}
  f8:	000d0c0e 	andeq	r0, sp, lr, lsl #24
  fc:	0000000c 	andeq	r0, r0, ip
 100:	000000ec 	andeq	r0, r0, ip, ror #1
 104:	010036f4 	strdeq	r3, [r0, -r4]
 108:	00000040 	andeq	r0, r0, r0, asr #32
 10c:	0000000c 	andeq	r0, r0, ip
 110:	000000ec 	andeq	r0, r0, ip, ror #1
 114:	01003734 	tsteq	r0, r4, lsr r7
 118:	00000020 	andeq	r0, r0, r0, lsr #32
 11c:	0000000c 	andeq	r0, r0, ip
 120:	000000ec 	andeq	r0, r0, ip, ror #1
 124:	01003754 	tsteq	r0, r4, asr r7
 128:	00000034 	andeq	r0, r0, r4, lsr r0
 12c:	0000000c 	andeq	r0, r0, ip
 130:	000000ec 	andeq	r0, r0, ip, ror #1
 134:	01003788 	smlabbeq	r0, r8, r7, r3
 138:	00000014 	andeq	r0, r0, r4, lsl r0
 13c:	0000000c 	andeq	r0, r0, ip
 140:	000000ec 	andeq	r0, r0, ip, ror #1
 144:	0100379c 			; <UNDEFINED> instruction: 0x0100379c
 148:	00000058 	andeq	r0, r0, r8, asr r0
 14c:	0000000c 	andeq	r0, r0, ip
 150:	ffffffff 			; <UNDEFINED> instruction: 0xffffffff
 154:	7c020001 	stcvc	0, cr0, [r2], {1}
 158:	000d0c0e 	andeq	r0, sp, lr, lsl #24
 15c:	00000014 	andeq	r0, r0, r4, lsl r0
 160:	0000014c 	andeq	r0, r0, ip, asr #2
 164:	010037f4 	strdeq	r3, [r0, -r4]
 168:	000000a4 	andeq	r0, r0, r4, lsr #1
 16c:	44080e46 	strmi	r0, [r8], #-3654	; 0xe46
 170:	02840185 	addeq	r0, r4, #1073741857	; 0x40000021
 174:	00000018 	andeq	r0, r0, r8, lsl r0
 178:	0000014c 	andeq	r0, r0, ip, asr #2
 17c:	01003898 			; <UNDEFINED> instruction: 0x01003898
 180:	00000040 	andeq	r0, r0, r0, asr #32
 184:	42100e42 	andsmi	r0, r0, #1056	; 0x420
 188:	0286018e 	addeq	r0, r6, #-2147483613	; 0x80000023
 18c:	04840385 	streq	r0, [r4], #901	; 0x385
 190:	0000000c 	andeq	r0, r0, ip
 194:	ffffffff 			; <UNDEFINED> instruction: 0xffffffff
 198:	7c020001 	stcvc	0, cr0, [r2], {1}
 19c:	000d0c0e 	andeq	r0, sp, lr, lsl #24
 1a0:	00000024 	andeq	r0, r0, r4, lsr #32
 1a4:	00000190 	muleq	r0, r0, r1
 1a8:	01003a1c 	tsteq	r0, ip, lsl sl
 1ac:	000000dc 	ldrdeq	r0, [r0], -ip
 1b0:	421c0e42 	andsmi	r0, ip, #1056	; 0x420
 1b4:	8e5e400e 	cdphi	0, 5, cr4, cr14, cr14, {0}
 1b8:	88028a01 	stmdahi	r2, {r0, r9, fp, pc}
 1bc:	86048703 	strhi	r8, [r4], -r3, lsl #14
 1c0:	84068505 	strhi	r8, [r6], #-1285	; 0x505
 1c4:	00000007 	andeq	r0, r0, r7
 1c8:	00000018 	andeq	r0, r0, r8, lsl r0
 1cc:	00000190 	muleq	r0, r0, r1
 1d0:	01003af8 	strdeq	r3, [r0, -r8]
 1d4:	0000004c 	andeq	r0, r0, ip, asr #32
 1d8:	44040e42 	strmi	r0, [r4], #-3650	; 0xe42
 1dc:	8e50100e 	cdphi	0, 5, cr1, cr0, cr14, {0}
 1e0:	00000001 	andeq	r0, r0, r1
 1e4:	00000018 	andeq	r0, r0, r8, lsl r0
 1e8:	00000190 	muleq	r0, r0, r1
 1ec:	01003b44 	tsteq	r0, r4, asr #22
 1f0:	00000030 	andeq	r0, r0, r0, lsr r0
 1f4:	42080e42 	andmi	r0, r8, #1056	; 0x420
 1f8:	8e42100e 	cdphi	0, 4, cr1, cr2, cr14, {0}
 1fc:	00028401 	andeq	r8, r2, r1, lsl #8
 200:	00000018 	andeq	r0, r0, r8, lsl r0
 204:	00000190 	muleq	r0, r0, r1
 208:	01003b74 	tsteq	r0, r4, ror fp
 20c:	0000003c 	andeq	r0, r0, ip, lsr r0
 210:	44040e42 	strmi	r0, [r4], #-3650	; 0xe42
 214:	8e4a180e 	cdphi	8, 4, cr1, cr10, cr14, {0}
 218:	00000001 	andeq	r0, r0, r1
 21c:	00000018 	andeq	r0, r0, r8, lsl r0
 220:	00000190 	muleq	r0, r0, r1
 224:	01003bb0 			; <UNDEFINED> instruction: 0x01003bb0
 228:	00000034 	andeq	r0, r0, r4, lsr r0
 22c:	44080e42 	strmi	r0, [r8], #-3650	; 0xe42
 230:	8e42100e 	cdphi	0, 4, cr1, cr2, cr14, {0}
 234:	00028401 	andeq	r8, r2, r1, lsl #8
 238:	00000018 	andeq	r0, r0, r8, lsl r0
 23c:	00000190 	muleq	r0, r0, r1
 240:	01003be4 	smlatteq	r0, r4, fp, r3
 244:	00000048 	andeq	r0, r0, r8, asr #32
 248:	42040e42 	andmi	r0, r4, #1056	; 0x420
 24c:	0e42018e 	dvfeqd	f0, f2, #0.5
 250:	00000030 	andeq	r0, r0, r0, lsr r0
 254:	00000014 	andeq	r0, r0, r4, lsl r0
 258:	00000190 	muleq	r0, r0, r1
 25c:	01003c2c 	tsteq	r0, ip, lsr #24
 260:	00000068 	andeq	r0, r0, r8, rrx
 264:	42080e44 	andmi	r0, r8, #1088	; 0x440
 268:	0284018e 	addeq	r0, r4, #-2147483613	; 0x80000023
 26c:	0000001c 	andeq	r0, r0, ip, lsl r0
 270:	00000190 	muleq	r0, r0, r1
 274:	01003c94 			; <UNDEFINED> instruction: 0x01003c94
 278:	00000058 	andeq	r0, r0, r8, asr r0
 27c:	42180e42 	andsmi	r0, r8, #1056	; 0x420
 280:	0287018e 	addeq	r0, r7, #-2147483613	; 0x80000023
 284:	04850386 	streq	r0, [r5], #902	; 0x386
 288:	06830584 	streq	r0, [r3], r4, lsl #11
 28c:	0000001c 	andeq	r0, r0, ip, lsl r0
 290:	00000190 	muleq	r0, r0, r1
 294:	01003cec 	smlatteq	r0, ip, ip, r3
 298:	0000005c 	andeq	r0, r0, ip, asr r0
 29c:	42100e42 	andsmi	r0, r0, #1056	; 0x420
 2a0:	0286018e 	addeq	r0, r6, #-2147483613	; 0x80000023
 2a4:	04840385 	streq	r0, [r4], #901	; 0x385
 2a8:	00180e42 	andseq	r0, r8, r2, asr #28
 2ac:	00000018 	andeq	r0, r0, r8, lsl r0
 2b0:	00000190 	muleq	r0, r0, r1
 2b4:	01003d48 	tsteq	r0, r8, asr #26
 2b8:	00000070 	andeq	r0, r0, r0, ror r0
 2bc:	42080e42 	andmi	r0, r8, #1056	; 0x420
 2c0:	8e48100e 	cdphi	0, 4, cr1, cr8, cr14, {0}
 2c4:	00028401 	andeq	r8, r2, r1, lsl #8
 2c8:	0000000c 	andeq	r0, r0, ip
 2cc:	00000190 	muleq	r0, r0, r1
 2d0:	01003db8 			; <UNDEFINED> instruction: 0x01003db8
 2d4:	00000010 	andeq	r0, r0, r0, lsl r0
 2d8:	0000000c 	andeq	r0, r0, ip
 2dc:	00000190 	muleq	r0, r0, r1
 2e0:	01003dc8 	smlabteq	r0, r8, sp, r3
 2e4:	00000010 	andeq	r0, r0, r0, lsl r0
 2e8:	00000018 	andeq	r0, r0, r8, lsl r0
 2ec:	00000190 	muleq	r0, r0, r1
 2f0:	01003dd8 	ldrdeq	r3, [r0, -r8]
 2f4:	00000070 	andeq	r0, r0, r0, ror r0
 2f8:	46080e42 	strmi	r0, [r8], -r2, asr #28
 2fc:	8e44100e 	cdphi	0, 4, cr1, cr4, cr14, {0}
 300:	00028401 	andeq	r8, r2, r1, lsl #8
 304:	00000014 	andeq	r0, r0, r4, lsl r0
 308:	00000190 	muleq	r0, r0, r1
 30c:	01003e48 	tsteq	r0, r8, asr #28
 310:	00000090 	muleq	r0, r0, r0
 314:	44080e42 	strmi	r0, [r8], #-3650	; 0xe42
 318:	0283018e 	addeq	r0, r3, #-2147483613	; 0x80000023
 31c:	00000018 	andeq	r0, r0, r8, lsl r0
 320:	00000190 	muleq	r0, r0, r1
 324:	01003ed8 	ldrdeq	r3, [r0, -r8]
 328:	00000084 	andeq	r0, r0, r4, lsl #1
 32c:	44100e42 	ldrmi	r0, [r0], #-3650	; 0xe42
 330:	0285018e 	addeq	r0, r5, #-2147483613	; 0x80000023
 334:	04830384 	streq	r0, [r3], #900	; 0x384
 338:	00000018 	andeq	r0, r0, r8, lsl r0
 33c:	00000190 	muleq	r0, r0, r1
 340:	01003f5c 	tsteq	r0, ip, asr pc
 344:	00000038 	andeq	r0, r0, r8, lsr r0
 348:	42040e42 	andmi	r0, r4, #1056	; 0x420
 34c:	8e46180e 	cdphi	8, 4, cr1, cr6, cr14, {0}
 350:	00000001 	andeq	r0, r0, r1
 354:	0000001c 	andeq	r0, r0, ip, lsl r0
 358:	00000190 	muleq	r0, r0, r1
 35c:	01003f94 			; <UNDEFINED> instruction: 0x01003f94
 360:	0000007c 	andeq	r0, r0, ip, ror r0
 364:	42180e42 	andsmi	r0, r8, #1056	; 0x420
 368:	0288018e 	addeq	r0, r8, #-2147483613	; 0x80000023
 36c:	04860387 	streq	r0, [r6], #903	; 0x387
 370:	06840585 	streq	r0, [r4], r5, lsl #11
 374:	00000020 	andeq	r0, r0, r0, lsr #32
 378:	00000190 	muleq	r0, r0, r1
 37c:	01004010 	tsteq	r0, r0, lsl r0
 380:	000000b8 	strheq	r0, [r0], -r8
 384:	42200e42 	eormi	r0, r0, #1056	; 0x420
 388:	028a018e 	addeq	r0, sl, #-2147483613	; 0x80000023
 38c:	04880389 	streq	r0, [r8], #905	; 0x389
 390:	06860587 	streq	r0, [r6], r7, lsl #11
 394:	08840785 	stmeq	r4, {r0, r2, r7, r8, r9, sl}
 398:	0000000c 	andeq	r0, r0, ip
 39c:	00000190 	muleq	r0, r0, r1
 3a0:	010040c8 	smlabteq	r0, r8, r0, r4
 3a4:	00000008 	andeq	r0, r0, r8
 3a8:	0000000c 	andeq	r0, r0, ip
 3ac:	00000190 	muleq	r0, r0, r1
 3b0:	010040d0 	ldrdeq	r4, [r0, -r0]
 3b4:	00000068 	andeq	r0, r0, r8, rrx
 3b8:	00000020 	andeq	r0, r0, r0, lsr #32
 3bc:	00000190 	muleq	r0, r0, r1
 3c0:	01004138 	tsteq	r0, r8, lsr r1
 3c4:	000000ac 	andeq	r0, r0, ip, lsr #1
 3c8:	42140e42 	andsmi	r0, r4, #1056	; 0x420
 3cc:	8e44200e 	cdphi	0, 4, cr2, cr4, cr14, {0}
 3d0:	86028701 	strhi	r8, [r2], -r1, lsl #14
 3d4:	84048503 	strhi	r8, [r4], #-1283	; 0x503
 3d8:	00000005 	andeq	r0, r0, r5
 3dc:	0000000c 	andeq	r0, r0, ip
 3e0:	00000190 	muleq	r0, r0, r1
 3e4:	010041e4 	smlatteq	r0, r4, r1, r4
 3e8:	00000078 	andeq	r0, r0, r8, ror r0
 3ec:	0000001c 	andeq	r0, r0, ip, lsl r0
 3f0:	00000190 	muleq	r0, r0, r1
 3f4:	0100425c 	tsteq	r0, ip, asr r2
 3f8:	0000014c 	andeq	r0, r0, ip, asr #2
 3fc:	420c0e42 	andmi	r0, ip, #1056	; 0x420
 400:	8e44280e 	cdphi	8, 4, cr2, cr4, cr14, {0}
 404:	84028501 	strhi	r8, [r2], #-1281	; 0x501
 408:	00000003 	andeq	r0, r0, r3
 40c:	00000024 	andeq	r0, r0, r4, lsr #32
 410:	00000190 	muleq	r0, r0, r1
 414:	010043a8 	smlatbeq	r0, r8, r3, r4
 418:	000001c8 	andeq	r0, r0, r8, asr #3
 41c:	42200e42 	eormi	r0, r0, #1056	; 0x420
 420:	028a018e 	addeq	r0, sl, #-2147483613	; 0x80000023
 424:	04880389 	streq	r0, [r8], #905	; 0x389
 428:	06860587 	streq	r0, [r6], r7, lsl #11
 42c:	08840785 	stmeq	r4, {r0, r2, r7, r8, r9, sl}
 430:	00280e42 	eoreq	r0, r8, r2, asr #28
 434:	00000024 	andeq	r0, r0, r4, lsr #32
 438:	00000190 	muleq	r0, r0, r1
 43c:	01004570 	tsteq	r0, r0, ror r5
 440:	00000080 	andeq	r0, r0, r0, lsl #1
 444:	42200e42 	eormi	r0, r0, #1056	; 0x420
 448:	028a018e 	addeq	r0, sl, #-2147483613	; 0x80000023
 44c:	04880389 	streq	r0, [r8], #905	; 0x389
 450:	06860587 	streq	r0, [r6], r7, lsl #11
 454:	08840785 	stmeq	r4, {r0, r2, r7, r8, r9, sl}
 458:	00280e44 	eoreq	r0, r8, r4, asr #28
 45c:	00000014 	andeq	r0, r0, r4, lsl r0
 460:	00000190 	muleq	r0, r0, r1
 464:	010045f0 	strdeq	r4, [r0, -r0]
 468:	00000040 	andeq	r0, r0, r0, asr #32
 46c:	42080e42 	andmi	r0, r8, #1056	; 0x420
 470:	0284018e 	addeq	r0, r4, #-2147483613	; 0x80000023
 474:	0000000c 	andeq	r0, r0, ip
 478:	ffffffff 			; <UNDEFINED> instruction: 0xffffffff
 47c:	7c020001 	stcvc	0, cr0, [r2], {1}
 480:	000d0c0e 	andeq	r0, sp, lr, lsl #24
 484:	00000014 	andeq	r0, r0, r4, lsl r0
 488:	00000474 	andeq	r0, r0, r4, ror r4
 48c:	01004630 	tsteq	r0, r0, lsr r6
 490:	00000028 	andeq	r0, r0, r8, lsr #32
 494:	42080e42 	andmi	r0, r8, #1056	; 0x420
 498:	0284018e 	addeq	r0, r4, #-2147483613	; 0x80000023
 49c:	00000018 	andeq	r0, r0, r8, lsl r0
 4a0:	00000474 	andeq	r0, r0, r4, ror r4
 4a4:	01004658 	tsteq	r0, r8, asr r6
 4a8:	00000058 	andeq	r0, r0, r8, asr r0
 4ac:	44080e42 	strmi	r0, [r8], #-3650	; 0xe42
 4b0:	8542180e 	strbhi	r1, [r2, #-2062]	; 0x80e
 4b4:	00028401 	andeq	r8, r2, r1, lsl #8
 4b8:	00000018 	andeq	r0, r0, r8, lsl r0
 4bc:	00000474 	andeq	r0, r0, r4, ror r4
 4c0:	010046b0 			; <UNDEFINED> instruction: 0x010046b0
 4c4:	00000068 	andeq	r0, r0, r8, rrx
 4c8:	44040e42 	strmi	r0, [r4], #-3650	; 0xe42
 4cc:	8e42280e 	cdphi	8, 4, cr2, cr2, cr14, {0}
 4d0:	00000001 	andeq	r0, r0, r1
 4d4:	0000000c 	andeq	r0, r0, ip
 4d8:	ffffffff 			; <UNDEFINED> instruction: 0xffffffff
 4dc:	7c020001 	stcvc	0, cr0, [r2], {1}
 4e0:	000d0c0e 	andeq	r0, sp, lr, lsl #24
 4e4:	0000000c 	andeq	r0, r0, ip
 4e8:	000004d4 	ldrdeq	r0, [r0], -r4
 4ec:	01004718 	tsteq	r0, r8, lsl r7
 4f0:	00000028 	andeq	r0, r0, r8, lsr #32
 4f4:	00000014 	andeq	r0, r0, r4, lsl r0
 4f8:	000004d4 	ldrdeq	r0, [r0], -r4
 4fc:	01004740 	tsteq	r0, r0, asr #14
 500:	00000044 	andeq	r0, r0, r4, asr #32
 504:	44040e44 	strmi	r0, [r4], #-3652	; 0xe44
 508:	00000184 	andeq	r0, r0, r4, lsl #3
 50c:	0000000c 	andeq	r0, r0, ip
 510:	000004d4 	ldrdeq	r0, [r0], -r4
 514:	01004784 	smlabbeq	r0, r4, r7, r4
 518:	00000038 	andeq	r0, r0, r8, lsr r0
 51c:	0000000c 	andeq	r0, r0, ip
 520:	000004d4 	ldrdeq	r0, [r0], -r4
 524:	010047bc 			; <UNDEFINED> instruction: 0x010047bc
 528:	00000048 	andeq	r0, r0, r8, asr #32
 52c:	0000000c 	andeq	r0, r0, ip
 530:	000004d4 	ldrdeq	r0, [r0], -r4
 534:	01004804 	tsteq	r0, r4, lsl #16
 538:	0000002c 	andeq	r0, r0, ip, lsr #32
